Archive member included because of file (symbol)

libs/gcc/fplibm.lib(s_cos.o)  build/gcc/obj/custom/main.o (cos)
libs/gcc/fplibm.lib(s_sin.o)  build/gcc/obj/custom/main.o (sin)
libs/gcc/fplibm.lib(w_atan2.o)
                              build/gcc/obj/custom/main.o (atan2)
libs/gcc/fplibm.lib(w_sqrt.o)
                              build/gcc/obj/custom/main.o (sqrt)
libs/gcc/fplibm.lib(e_atan2.o)
                              libs/gcc/fplibm.lib(w_atan2.o) (__ieee754_atan2)
libs/gcc/fplibm.lib(e_rem_pio2.o)
                              libs/gcc/fplibm.lib(s_cos.o) (__ieee754_rem_pio2)
libs/gcc/fplibm.lib(e_sqrt.o)
                              libs/gcc/fplibm.lib(w_sqrt.o) (__ieee754_sqrt)
libs/gcc/fplibm.lib(k_cos.o)  libs/gcc/fplibm.lib(s_cos.o) (__kernel_cos)
libs/gcc/fplibm.lib(k_rem_pio2.o)
                              libs/gcc/fplibm.lib(e_rem_pio2.o) (__kernel_rem_pio2)
libs/gcc/fplibm.lib(k_sin.o)  libs/gcc/fplibm.lib(s_cos.o) (__kernel_sin)
libs/gcc/fplibm.lib(s_atan.o)
                              libs/gcc/fplibm.lib(e_atan2.o) (atan)
libs/gcc/fplibm.lib(s_floor.o)
                              libs/gcc/fplibm.lib(k_rem_pio2.o) (floor)
libs/gcc/fplibm.lib(s_scalbn.o)
                              libs/gcc/fplibm.lib(k_rem_pio2.o) (scalbn)
libs/gcc/app_start.lib(adc.o)
                              build/gcc/obj/custom/dfota/src/tracker_functions.o (Ql_ADC_Open)
libs/gcc/app_start.lib(timer.o)
                              build/gcc/obj/custom/main.o (Ql_Timer_Register)
libs/gcc/app_start.lib(gprs.o)
                              build/gcc/obj/custom/dfota/src/dfota_main.o (Ql_GPRS_GetPDPContextId)
libs/gcc/app_start.lib(ql_func.o)
                              libs/gcc/app_start.lib(adc.o) (m_get_api_ptr)
libs/gcc/app_start.lib(taskMngt.o)
                              build/gcc/obj/custom/main.o (Ql_OS_GetMessage)
libs/gcc/app_start.lib(fota.o)
                              build/gcc/obj/custom/dfota/src/dfota_main.o (Ql_DFOTA_Init)
libs/gcc/app_start.lib(ql_main.o)
                              build/gcc/obj/ril/src/ril_network.o (memset)
libs/gcc/app_start.lib(memory.o)
                              build/gcc/obj/ril/src/ril_http.o (Ql_MEM_Alloc)
libs/gcc/app_start.lib(ril_main.o)
                              build/gcc/obj/custom/main.o (Ql_Mqtt_Recv_Register)
libs/gcc/app_start.lib(ril_aux.o)
                              build/gcc/obj/custom/config/sys_config.o (proc_urc_task)
libs/gcc/app_start.lib(gpio.o)
                              build/gcc/obj/custom/main.o (Ql_GPIO_Init)
libs/gcc/app_start.lib(ocpi_init.o)
                              libs/gcc/app_start.lib(ql_main.o) (_OCPU_InitUserMem)
libs/gcc/app_start.lib(fileSys.o)
                              build/gcc/obj/custom/main.o (Ql_FS_Open)
libs/gcc/app_start.lib(power.o)
                              build/gcc/obj/custom/dfota/src/sms_command.o (Ql_SleepEnable)
libs/gcc/app_start.lib(lib_ril_sms.o)
                              build/gcc/obj/ril/src/ril_sms.o (LIB_SMS_IsValidHexStr)
libs/gcc/app_start.lib(stdlib_func.o)
                              build/gcc/obj/ril/src/ril_location.o (Ql_atof)
libs/gcc/app_start.lib(system.o)
                              build/gcc/obj/ril/src/ril_network.o (Ql_Sleep)
libs/gcc/app_start.lib(uart.o)
                              build/gcc/obj/custom/main.o (Ql_UART_Register)
libs/gcc/app_start.lib(watchdog.o)
                              build/gcc/obj/custom/main.o (Ql_WTD_Feed)
libs/gcc/app_start.lib(time.o)
                              build/gcc/obj/custom/dfota/src/sms_command.o (Ql_SetLocalTime)
libs/gcc/app_start.lib(socket.o)
                              build/gcc/obj/custom/dfota/src/dfota_http.o (Ql_SOC_CreateEx)
C:\CSDTK4\/mips-elf-4.4.2/lib/gcc/mips-elf/4.4.2/libgcc.a(_fixunsdfsi.o)
                              build/gcc/obj/custom/main.o (__fixunsdfsi)
C:\CSDTK4\/mips-elf-4.4.2/lib/gcc/mips-elf/4.4.2/libgcc.a(_addsub_sf.o)
                              build/gcc/obj/custom/dfota/src/tracker_functions.o (__addsf3)
C:\CSDTK4\/mips-elf-4.4.2/lib/gcc/mips-elf/4.4.2/libgcc.a(_mul_sf.o)
                              build/gcc/obj/custom/dfota/src/tracker_functions.o (__mulsf3)
C:\CSDTK4\/mips-elf-4.4.2/lib/gcc/mips-elf/4.4.2/libgcc.a(_div_sf.o)
                              build/gcc/obj/custom/dfota/src/tracker_functions.o (__divsf3)
C:\CSDTK4\/mips-elf-4.4.2/lib/gcc/mips-elf/4.4.2/libgcc.a(_sf_to_df.o)
                              build/gcc/obj/custom/main.o (__extendsfdf2)
C:\CSDTK4\/mips-elf-4.4.2/lib/gcc/mips-elf/4.4.2/libgcc.a(_thenan_sf.o)
                              C:\CSDTK4\/mips-elf-4.4.2/lib/gcc/mips-elf/4.4.2/libgcc.a(_addsub_sf.o) (__thenan_sf)
C:\CSDTK4\/mips-elf-4.4.2/lib/gcc/mips-elf/4.4.2/libgcc.a(_usi_to_sf.o)
                              build/gcc/obj/custom/dfota/src/tracker_functions.o (__floatunsisf)
C:\CSDTK4\/mips-elf-4.4.2/lib/gcc/mips-elf/4.4.2/libgcc.a(_addsub_df.o)
                              build/gcc/obj/custom/main.o (__subdf3)
C:\CSDTK4\/mips-elf-4.4.2/lib/gcc/mips-elf/4.4.2/libgcc.a(_mul_df.o)
                              build/gcc/obj/custom/main.o (__muldf3)
C:\CSDTK4\/mips-elf-4.4.2/lib/gcc/mips-elf/4.4.2/libgcc.a(_div_df.o)
                              build/gcc/obj/custom/main.o (__divdf3)
C:\CSDTK4\/mips-elf-4.4.2/lib/gcc/mips-elf/4.4.2/libgcc.a(_eq_df.o)
                              libs/gcc/fplibm.lib(e_rem_pio2.o) (__eqdf2)
C:\CSDTK4\/mips-elf-4.4.2/lib/gcc/mips-elf/4.4.2/libgcc.a(_gt_df.o)
                              libs/gcc/fplibm.lib(s_atan.o) (__gtdf2)
C:\CSDTK4\/mips-elf-4.4.2/lib/gcc/mips-elf/4.4.2/libgcc.a(_ge_df.o)
                              libs/gcc/fplibm.lib(k_rem_pio2.o) (__gedf2)
C:\CSDTK4\/mips-elf-4.4.2/lib/gcc/mips-elf/4.4.2/libgcc.a(_si_to_df.o)
                              build/gcc/obj/custom/main.o (__floatsidf)
C:\CSDTK4\/mips-elf-4.4.2/lib/gcc/mips-elf/4.4.2/libgcc.a(_df_to_si.o)
                              build/gcc/obj/ril/src/Ril_dtmf.o (__fixdfsi)
C:\CSDTK4\/mips-elf-4.4.2/lib/gcc/mips-elf/4.4.2/libgcc.a(_make_df.o)
                              C:\CSDTK4\/mips-elf-4.4.2/lib/gcc/mips-elf/4.4.2/libgcc.a(_sf_to_df.o) (__make_dp)
C:\CSDTK4\/mips-elf-4.4.2/lib/gcc/mips-elf/4.4.2/libgcc.a(_df_to_sf.o)
                              build/gcc/obj/ril/src/ril_location.o (__truncdfsf2)
C:\CSDTK4\/mips-elf-4.4.2/lib/gcc/mips-elf/4.4.2/libgcc.a(_thenan_df.o)
                              C:\CSDTK4\/mips-elf-4.4.2/lib/gcc/mips-elf/4.4.2/libgcc.a(_addsub_df.o) (__thenan_df)
C:\CSDTK4\/mips-elf-4.4.2/lib/gcc/mips-elf/4.4.2/libgcc.a(_lshrdi3.o)
                              C:\CSDTK4\/mips-elf-4.4.2/lib/gcc/mips-elf/4.4.2/libgcc.a(_addsub_df.o) (__lshrdi3)
C:\CSDTK4\/mips-elf-4.4.2/lib/gcc/mips-elf/4.4.2/libgcc.a(_ashldi3.o)
                              C:\CSDTK4\/mips-elf-4.4.2/lib/gcc/mips-elf/4.4.2/libgcc.a(_addsub_df.o) (__ashldi3)
C:\CSDTK4\/mips-elf-4.4.2/lib/gcc/mips-elf/4.4.2/libgcc.a(_ucmpdi2.o)
                              C:\CSDTK4\/mips-elf-4.4.2/lib/gcc/mips-elf/4.4.2/libgcc.a(_addsub_df.o) (__ucmpdi2)
C:\CSDTK4\/mips-elf-4.4.2/lib/gcc/mips-elf/4.4.2/libgcc.a(_clzsi2.o)
                              C:\CSDTK4\/mips-elf-4.4.2/lib/gcc/mips-elf/4.4.2/libgcc.a(_usi_to_sf.o) (__clzsi2)
C:\CSDTK4\/mips-elf-4.4.2/lib/gcc/mips-elf/4.4.2/libgcc.a(_pack_sf.o)
                              C:\CSDTK4\/mips-elf-4.4.2/lib/gcc/mips-elf/4.4.2/libgcc.a(_addsub_sf.o) (__pack_f)
C:\CSDTK4\/mips-elf-4.4.2/lib/gcc/mips-elf/4.4.2/libgcc.a(_unpack_sf.o)
                              C:\CSDTK4\/mips-elf-4.4.2/lib/gcc/mips-elf/4.4.2/libgcc.a(_addsub_sf.o) (__unpack_f)
C:\CSDTK4\/mips-elf-4.4.2/lib/gcc/mips-elf/4.4.2/libgcc.a(_make_sf.o)
                              C:\CSDTK4\/mips-elf-4.4.2/lib/gcc/mips-elf/4.4.2/libgcc.a(_df_to_sf.o) (__make_fp)
C:\CSDTK4\/mips-elf-4.4.2/lib/gcc/mips-elf/4.4.2/libgcc.a(_pack_df.o)
                              C:\CSDTK4\/mips-elf-4.4.2/lib/gcc/mips-elf/4.4.2/libgcc.a(_addsub_df.o) (__pack_d)
C:\CSDTK4\/mips-elf-4.4.2/lib/gcc/mips-elf/4.4.2/libgcc.a(_unpack_df.o)
                              C:\CSDTK4\/mips-elf-4.4.2/lib/gcc/mips-elf/4.4.2/libgcc.a(_addsub_df.o) (__unpack_d)
C:\CSDTK4\/mips-elf-4.4.2/lib/gcc/mips-elf/4.4.2/libgcc.a(_fpcmp_parts_df.o)
                              C:\CSDTK4\/mips-elf-4.4.2/lib/gcc/mips-elf/4.4.2/libgcc.a(_eq_df.o) (__fpcmp_parts_d)
C:\CSDTK4\/mips-elf-4.4.2/lib/gcc/mips-elf/4.4.2/libgcc.a(_clz.o)
                              C:\CSDTK4\/mips-elf-4.4.2/lib/gcc/mips-elf/4.4.2/libgcc.a(_clzsi2.o) (__clz_tab)

Allocating common symbols
Common symbol       size              file

Ql_snprintf         0x4               libs/gcc/app_start.lib(ql_main.o)
mqtt_con_status     0x4               build/gcc/obj/custom/main.o
Ql_sprintf          0x4               libs/gcc/app_start.lib(ql_main.o)
Ql_Debug_Trace      0x4               libs/gcc/app_start.lib(ql_main.o)
prevGnssData        0x48              build/gcc/obj/custom/main.o
Ql_sscanf           0x4               libs/gcc/app_start.lib(ql_main.o)
Temp_DBGBuffer      0x200             build/gcc/obj/custom/dfota/src/dfota_http_code.o
g_comingCall        0x124             build/gcc/obj/ril/src/ril_telephony.o
mainCellInfo        0x10              build/gcc/obj/custom/main.o
Fota_gprsCfg        0xb0              build/gcc/obj/custom/dfota/src/dfota_main.o
loclnfo             0x1c              build/gcc/obj/ril/src/ril_location2.o
receivedSms         0x400             build/gcc/obj/custom/main.o
deviceData          0x400             build/gcc/obj/custom/main.o
Ql_Debug_TraceEx    0x4               libs/gcc/app_start.lib(ql_main.o)
secondCellInfo      0x10              build/gcc/obj/custom/main.o
devConfig           0xb00             build/gcc/obj/custom/main.o
commandData         0x400             build/gcc/obj/custom/main.o
fourthCellInfo      0x10              build/gcc/obj/custom/main.o
FotaConfig          0x10              build/gcc/obj/custom/dfota/src/dfota_main.o
Ql_vsnprintf        0x4               libs/gcc/app_start.lib(ql_main.o)
lastLocationPush    0x4               build/gcc/obj/custom/main.o
batteryLevel        0x4               build/gcc/obj/custom/main.o
g_asConSMSBuf       0x119a            build/gcc/obj/custom/main.o
gnssData            0x48              build/gcc/obj/custom/main.o
mqtt_topic_info_t   0x4c              build/gcc/obj/custom/main.o
senderPhone         0x1e              build/gcc/obj/custom/main.o
thirdCellInfo       0x10              build/gcc/obj/custom/main.o
deviceAlarm         0x400             build/gcc/obj/custom/main.o
neighbors           0x100             build/gcc/obj/custom/main.o
MQTT_Recvhandler    0x4               libs/gcc/app_start.lib(ril_main.o)
httpMainContext     0x234             build/gcc/obj/custom/dfota/src/dfota_http.o
ignationPinLevel    0x4               build/gcc/obj/custom/main.o

Discarded input sections

 .reginfo       0x0000000000000000       0x18 build/gcc/obj/custom/config/sys_config.o
 .reginfo       0x0000000000000000       0x18 build/gcc/obj/ril/src/ril_audio.o
 .reginfo       0x0000000000000000       0x18 build/gcc/obj/ril/src/ril_custom.o
 .reginfo       0x0000000000000000       0x18 build/gcc/obj/ril/src/ril_http.o
 .reginfo       0x0000000000000000       0x18 build/gcc/obj/ril/src/ril_urc.o
 .reginfo       0x0000000000000000       0x18 build/gcc/obj/ril/src/ril_atResponse.o
 .reginfo       0x0000000000000000       0x18 build/gcc/obj/ril/src/ril_network.o
 .reginfo       0x0000000000000000       0x18 build/gcc/obj/ril/src/ril_location.o
 .reginfo       0x0000000000000000       0x18 build/gcc/obj/ril/src/ril_ntp.o
 .reginfo       0x0000000000000000       0x18 build/gcc/obj/ril/src/ril_telephony.o
 .reginfo       0x0000000000000000       0x18 build/gcc/obj/ril/src/ril_sms.o
 .reginfo       0x0000000000000000       0x18 build/gcc/obj/ril/src/ril_system.o
 .reginfo       0x0000000000000000       0x18 build/gcc/obj/ril/src/Ril_dtmf.o
 .reginfo       0x0000000000000000       0x18 build/gcc/obj/ril/src/ril_sim.o
 .reginfo       0x0000000000000000       0x18 build/gcc/obj/ril/src/ril_location2.o
 .reginfo       0x0000000000000000       0x18 build/gcc/obj/ril/src/ril_gnss.o
 .reginfo       0x0000000000000000       0x18 build/gcc/obj/ril/src/ril_init.o
 .reginfo       0x0000000000000000       0x18 build/gcc/obj/ril/src/ril_ftp.o
 .reginfo       0x0000000000000000       0x18 build/gcc/obj/ril/src/ril_alarm.o
 .reginfo       0x0000000000000000       0x18 build/gcc/obj/ril/src/ril_util.o
 .reginfo       0x0000000000000000       0x18 build/gcc/obj/ril/src/ril_mqtt.o
 .reginfo       0x0000000000000000       0x18 build/gcc/obj/custom/main.o
 .reginfo       0x0000000000000000       0x18 build/gcc/obj/custom/dfota/src/dfota_main.o
 .reginfo       0x0000000000000000       0x18 build/gcc/obj/custom/dfota/src/tracker_functions.o
 .reginfo       0x0000000000000000       0x18 build/gcc/obj/custom/dfota/src/gnss_parser.o
 .reginfo       0x0000000000000000       0x18 build/gcc/obj/custom/dfota/src/dfota_ftp.o
 .reginfo       0x0000000000000000       0x18 build/gcc/obj/custom/dfota/src/dfota_http_code.o
 .reginfo       0x0000000000000000       0x18 build/gcc/obj/custom/dfota/src/dfota_http.o
 .reginfo       0x0000000000000000       0x18 build/gcc/obj/custom/dfota/src/json_parser.o
 .reginfo       0x0000000000000000       0x18 build/gcc/obj/custom/dfota/src/sms_command.o
 .reginfo       0x0000000000000000       0x18 libs/gcc/fplibm.lib(s_cos.o)
 .reginfo       0x0000000000000000       0x18 libs/gcc/fplibm.lib(s_sin.o)
 .reginfo       0x0000000000000000       0x18 libs/gcc/fplibm.lib(w_atan2.o)
 .reginfo       0x0000000000000000       0x18 libs/gcc/fplibm.lib(w_sqrt.o)
 .reginfo       0x0000000000000000       0x18 libs/gcc/fplibm.lib(e_atan2.o)
 .reginfo       0x0000000000000000       0x18 libs/gcc/fplibm.lib(e_rem_pio2.o)
 .reginfo       0x0000000000000000       0x18 libs/gcc/fplibm.lib(e_sqrt.o)
 .reginfo       0x0000000000000000       0x18 libs/gcc/fplibm.lib(k_cos.o)
 .reginfo       0x0000000000000000       0x18 libs/gcc/fplibm.lib(k_rem_pio2.o)
 .reginfo       0x0000000000000000       0x18 libs/gcc/fplibm.lib(k_sin.o)
 .reginfo       0x0000000000000000       0x18 libs/gcc/fplibm.lib(s_atan.o)
 .reginfo       0x0000000000000000       0x18 libs/gcc/fplibm.lib(s_floor.o)
 .reginfo       0x0000000000000000       0x18 libs/gcc/fplibm.lib(s_scalbn.o)
 .reginfo       0x0000000000000000       0x18 libs/gcc/app_start.lib(adc.o)
 .reginfo       0x0000000000000000       0x18 libs/gcc/app_start.lib(timer.o)
 .reginfo       0x0000000000000000       0x18 libs/gcc/app_start.lib(gprs.o)
 .reginfo       0x0000000000000000       0x18 libs/gcc/app_start.lib(ql_func.o)
 .reginfo       0x0000000000000000       0x18 libs/gcc/app_start.lib(taskMngt.o)
 .reginfo       0x0000000000000000       0x18 libs/gcc/app_start.lib(fota.o)
 .reginfo       0x0000000000000000       0x18 libs/gcc/app_start.lib(ql_main.o)
 .reginfo       0x0000000000000000       0x18 libs/gcc/app_start.lib(memory.o)
 .reginfo       0x0000000000000000       0x18 libs/gcc/app_start.lib(ril_main.o)
 .reginfo       0x0000000000000000       0x18 libs/gcc/app_start.lib(ril_aux.o)
 .reginfo       0x0000000000000000       0x18 libs/gcc/app_start.lib(gpio.o)
 .reginfo       0x0000000000000000       0x18 libs/gcc/app_start.lib(ocpi_init.o)
 .reginfo       0x0000000000000000       0x18 libs/gcc/app_start.lib(fileSys.o)
 .reginfo       0x0000000000000000       0x18 libs/gcc/app_start.lib(power.o)
 .reginfo       0x0000000000000000       0x18 libs/gcc/app_start.lib(lib_ril_sms.o)
 .reginfo       0x0000000000000000       0x18 libs/gcc/app_start.lib(stdlib_func.o)
 .reginfo       0x0000000000000000       0x18 libs/gcc/app_start.lib(system.o)
 .reginfo       0x0000000000000000       0x18 libs/gcc/app_start.lib(uart.o)
 .reginfo       0x0000000000000000       0x18 libs/gcc/app_start.lib(watchdog.o)
 .reginfo       0x0000000000000000       0x18 libs/gcc/app_start.lib(time.o)
 .reginfo       0x0000000000000000       0x18 libs/gcc/app_start.lib(socket.o)
 .reginfo       0x0000000000000000       0x18 C:\CSDTK4\/mips-elf-4.4.2/lib/gcc/mips-elf/4.4.2/libgcc.a(_fixunsdfsi.o)
 .reginfo       0x0000000000000000       0x18 C:\CSDTK4\/mips-elf-4.4.2/lib/gcc/mips-elf/4.4.2/libgcc.a(_addsub_sf.o)
 .reginfo       0x0000000000000000       0x18 C:\CSDTK4\/mips-elf-4.4.2/lib/gcc/mips-elf/4.4.2/libgcc.a(_mul_sf.o)
 .reginfo       0x0000000000000000       0x18 C:\CSDTK4\/mips-elf-4.4.2/lib/gcc/mips-elf/4.4.2/libgcc.a(_div_sf.o)
 .reginfo       0x0000000000000000       0x18 C:\CSDTK4\/mips-elf-4.4.2/lib/gcc/mips-elf/4.4.2/libgcc.a(_sf_to_df.o)
 .reginfo       0x0000000000000000       0x18 C:\CSDTK4\/mips-elf-4.4.2/lib/gcc/mips-elf/4.4.2/libgcc.a(_thenan_sf.o)
 .reginfo       0x0000000000000000       0x18 C:\CSDTK4\/mips-elf-4.4.2/lib/gcc/mips-elf/4.4.2/libgcc.a(_usi_to_sf.o)
 .reginfo       0x0000000000000000       0x18 C:\CSDTK4\/mips-elf-4.4.2/lib/gcc/mips-elf/4.4.2/libgcc.a(_addsub_df.o)
 .reginfo       0x0000000000000000       0x18 C:\CSDTK4\/mips-elf-4.4.2/lib/gcc/mips-elf/4.4.2/libgcc.a(_mul_df.o)
 .reginfo       0x0000000000000000       0x18 C:\CSDTK4\/mips-elf-4.4.2/lib/gcc/mips-elf/4.4.2/libgcc.a(_div_df.o)
 .reginfo       0x0000000000000000       0x18 C:\CSDTK4\/mips-elf-4.4.2/lib/gcc/mips-elf/4.4.2/libgcc.a(_eq_df.o)
 .reginfo       0x0000000000000000       0x18 C:\CSDTK4\/mips-elf-4.4.2/lib/gcc/mips-elf/4.4.2/libgcc.a(_gt_df.o)
 .reginfo       0x0000000000000000       0x18 C:\CSDTK4\/mips-elf-4.4.2/lib/gcc/mips-elf/4.4.2/libgcc.a(_ge_df.o)
 .reginfo       0x0000000000000000       0x18 C:\CSDTK4\/mips-elf-4.4.2/lib/gcc/mips-elf/4.4.2/libgcc.a(_si_to_df.o)
 .reginfo       0x0000000000000000       0x18 C:\CSDTK4\/mips-elf-4.4.2/lib/gcc/mips-elf/4.4.2/libgcc.a(_df_to_si.o)
 .reginfo       0x0000000000000000       0x18 C:\CSDTK4\/mips-elf-4.4.2/lib/gcc/mips-elf/4.4.2/libgcc.a(_make_df.o)
 .reginfo       0x0000000000000000       0x18 C:\CSDTK4\/mips-elf-4.4.2/lib/gcc/mips-elf/4.4.2/libgcc.a(_df_to_sf.o)
 .reginfo       0x0000000000000000       0x18 C:\CSDTK4\/mips-elf-4.4.2/lib/gcc/mips-elf/4.4.2/libgcc.a(_thenan_df.o)
 .reginfo       0x0000000000000000       0x18 C:\CSDTK4\/mips-elf-4.4.2/lib/gcc/mips-elf/4.4.2/libgcc.a(_lshrdi3.o)
 .reginfo       0x0000000000000000       0x18 C:\CSDTK4\/mips-elf-4.4.2/lib/gcc/mips-elf/4.4.2/libgcc.a(_ashldi3.o)
 .reginfo       0x0000000000000000       0x18 C:\CSDTK4\/mips-elf-4.4.2/lib/gcc/mips-elf/4.4.2/libgcc.a(_ucmpdi2.o)
 .reginfo       0x0000000000000000       0x18 C:\CSDTK4\/mips-elf-4.4.2/lib/gcc/mips-elf/4.4.2/libgcc.a(_clzsi2.o)
 .reginfo       0x0000000000000000       0x18 C:\CSDTK4\/mips-elf-4.4.2/lib/gcc/mips-elf/4.4.2/libgcc.a(_pack_sf.o)
 .reginfo       0x0000000000000000       0x18 C:\CSDTK4\/mips-elf-4.4.2/lib/gcc/mips-elf/4.4.2/libgcc.a(_unpack_sf.o)
 .reginfo       0x0000000000000000       0x18 C:\CSDTK4\/mips-elf-4.4.2/lib/gcc/mips-elf/4.4.2/libgcc.a(_make_sf.o)
 .reginfo       0x0000000000000000       0x18 C:\CSDTK4\/mips-elf-4.4.2/lib/gcc/mips-elf/4.4.2/libgcc.a(_pack_df.o)
 .reginfo       0x0000000000000000       0x18 C:\CSDTK4\/mips-elf-4.4.2/lib/gcc/mips-elf/4.4.2/libgcc.a(_unpack_df.o)
 .reginfo       0x0000000000000000       0x18 C:\CSDTK4\/mips-elf-4.4.2/lib/gcc/mips-elf/4.4.2/libgcc.a(_fpcmp_parts_df.o)
 .reginfo       0x0000000000000000       0x18 C:\CSDTK4\/mips-elf-4.4.2/lib/gcc/mips-elf/4.4.2/libgcc.a(_clz.o)

Memory Configuration

Name             Origin             Length             Attributes
*default*        0x0000000000000000 0xffffffffffffffff

Linker script and memory map

                0x0000000088310000                __ROM_START_ADDR = 0x88310000
                0x0000000000050000                __MAX_ROM_SIZE = 0x50000
                0x00000000823e7000                __RAM_START_ADDR = 0x823e7000
                0x0000000082400000                __RAM_END_ADDR = 0x82400000
                0x0000000088310000                . = __ROM_START_ADDR
                0x0000000088310000                _ROM_START = .

.initdata       0x0000000088310000       0x40
 *(.initdata)
 .initdata      0x0000000088310000       0x3c libs/gcc/app_start.lib(ql_main.o)
                0x0000000088310000                GADLENTRY
                0x0000000088310040                . = ALIGN (0x10)
 *fill*         0x000000008831003c        0x4 00

.text           0x0000000088310040     0x1150
 *(.text)
 .text          0x0000000088310040        0x0 build/gcc/obj/custom/config/custom_sys_cfg.o
 .text          0x0000000088310040        0x0 build/gcc/obj/custom/config/sys_config.o
 .text          0x0000000088310040        0x0 build/gcc/obj/ril/src/ril_audio.o
 .text          0x0000000088310040        0x0 build/gcc/obj/ril/src/ril_custom.o
 .text          0x0000000088310040        0x0 build/gcc/obj/ril/src/ril_http.o
 .text          0x0000000088310040        0x0 build/gcc/obj/ril/src/ril_urc.o
 .text          0x0000000088310040        0x0 build/gcc/obj/ril/src/ril_atResponse.o
 .text          0x0000000088310040        0x0 build/gcc/obj/ril/src/ril_network.o
 .text          0x0000000088310040        0x0 build/gcc/obj/ril/src/ril_location.o
 .text          0x0000000088310040        0x0 build/gcc/obj/ril/src/ril_ntp.o
 .text          0x0000000088310040        0x0 build/gcc/obj/ril/src/ril_telephony.o
 .text          0x0000000088310040        0x0 build/gcc/obj/ril/src/ril_sms.o
 .text          0x0000000088310040        0x0 build/gcc/obj/ril/src/ril_system.o
 .text          0x0000000088310040        0x0 build/gcc/obj/ril/src/Ril_dtmf.o
 .text          0x0000000088310040        0x0 build/gcc/obj/ril/src/ril_sim.o
 .text          0x0000000088310040        0x0 build/gcc/obj/ril/src/ril_location2.o
 .text          0x0000000088310040        0x0 build/gcc/obj/ril/src/ril_gnss.o
 .text          0x0000000088310040        0x0 build/gcc/obj/ril/src/ril_init.o
 .text          0x0000000088310040        0x0 build/gcc/obj/ril/src/ril_ftp.o
 .text          0x0000000088310040        0x0 build/gcc/obj/ril/src/ril_alarm.o
 .text          0x0000000088310040        0x0 build/gcc/obj/ril/src/ril_util.o
 .text          0x0000000088310040        0x0 build/gcc/obj/ril/src/ril_mqtt.o
 .text          0x0000000088310040        0x0 build/gcc/obj/custom/main.o
 .text          0x0000000088310040        0x0 build/gcc/obj/custom/dfota/src/dfota_main.o
 .text          0x0000000088310040        0x0 build/gcc/obj/custom/dfota/src/tracker_functions.o
 .text          0x0000000088310040        0x0 build/gcc/obj/custom/dfota/src/gnss_parser.o
 .text          0x0000000088310040        0x0 build/gcc/obj/custom/dfota/src/dfota_ftp.o
 .text          0x0000000088310040        0x0 build/gcc/obj/custom/dfota/src/dfota_http_code.o
 .text          0x0000000088310040        0x0 build/gcc/obj/custom/dfota/src/dfota_http.o
 .text          0x0000000088310040        0x0 build/gcc/obj/custom/dfota/src/json_parser.o
 .text          0x0000000088310040        0x0 build/gcc/obj/custom/dfota/src/sms_command.o
 .text          0x0000000088310040        0x0 libs/gcc/fplibm.lib(s_cos.o)
 .text          0x0000000088310040        0x0 libs/gcc/fplibm.lib(s_sin.o)
 .text          0x0000000088310040        0x0 libs/gcc/fplibm.lib(w_atan2.o)
 .text          0x0000000088310040        0x0 libs/gcc/fplibm.lib(w_sqrt.o)
 .text          0x0000000088310040        0x0 libs/gcc/fplibm.lib(e_atan2.o)
 .text          0x0000000088310040        0x0 libs/gcc/fplibm.lib(e_rem_pio2.o)
 .text          0x0000000088310040        0x0 libs/gcc/fplibm.lib(e_sqrt.o)
 .text          0x0000000088310040        0x0 libs/gcc/fplibm.lib(k_cos.o)
 .text          0x0000000088310040        0x0 libs/gcc/fplibm.lib(k_rem_pio2.o)
 .text          0x0000000088310040        0x0 libs/gcc/fplibm.lib(k_sin.o)
 .text          0x0000000088310040        0x0 libs/gcc/fplibm.lib(s_atan.o)
 .text          0x0000000088310040        0x0 libs/gcc/fplibm.lib(s_floor.o)
 .text          0x0000000088310040        0x0 libs/gcc/fplibm.lib(s_scalbn.o)
 .text          0x0000000088310040        0x0 libs/gcc/app_start.lib(adc.o)
 .text          0x0000000088310040        0x0 libs/gcc/app_start.lib(timer.o)
 .text          0x0000000088310040        0x0 libs/gcc/app_start.lib(gprs.o)
 .text          0x0000000088310040        0x0 libs/gcc/app_start.lib(ql_func.o)
 .text          0x0000000088310040        0x0 libs/gcc/app_start.lib(taskMngt.o)
 .text          0x0000000088310040        0x0 libs/gcc/app_start.lib(fota.o)
 .text          0x0000000088310040        0x0 libs/gcc/app_start.lib(ql_main.o)
 .text          0x0000000088310040        0x0 libs/gcc/app_start.lib(memory.o)
 .text          0x0000000088310040        0x0 libs/gcc/app_start.lib(ril_main.o)
 .text          0x0000000088310040        0x0 libs/gcc/app_start.lib(ril_aux.o)
 .text          0x0000000088310040        0x0 libs/gcc/app_start.lib(gpio.o)
 .text          0x0000000088310040        0x0 libs/gcc/app_start.lib(ocpi_init.o)
 .text          0x0000000088310040        0x0 libs/gcc/app_start.lib(fileSys.o)
 .text          0x0000000088310040        0x0 libs/gcc/app_start.lib(power.o)
 .text          0x0000000088310040        0x0 libs/gcc/app_start.lib(lib_ril_sms.o)
 .text          0x0000000088310040        0x0 libs/gcc/app_start.lib(stdlib_func.o)
 .text          0x0000000088310040        0x0 libs/gcc/app_start.lib(system.o)
 .text          0x0000000088310040        0x0 libs/gcc/app_start.lib(uart.o)
 .text          0x0000000088310040        0x0 libs/gcc/app_start.lib(watchdog.o)
 .text          0x0000000088310040        0x0 libs/gcc/app_start.lib(time.o)
 .text          0x0000000088310040        0x0 libs/gcc/app_start.lib(socket.o)
 .text          0x0000000088310040       0x50 C:\CSDTK4\/mips-elf-4.4.2/lib/gcc/mips-elf/4.4.2/libgcc.a(_fixunsdfsi.o)
                0x0000000088310041                __fixunsdfsi
 .text          0x0000000088310090      0x1c0 C:\CSDTK4\/mips-elf-4.4.2/lib/gcc/mips-elf/4.4.2/libgcc.a(_addsub_sf.o)
                0x00000000883101d1                __subsf3
                0x0000000088310215                __addsf3
 .text          0x0000000088310250       0xfc C:\CSDTK4\/mips-elf-4.4.2/lib/gcc/mips-elf/4.4.2/libgcc.a(_mul_sf.o)
                0x0000000088310251                __mulsf3
 .text          0x000000008831034c       0xc4 C:\CSDTK4\/mips-elf-4.4.2/lib/gcc/mips-elf/4.4.2/libgcc.a(_div_sf.o)
                0x000000008831034d                __divsf3
 .text          0x0000000088310410       0x2c C:\CSDTK4\/mips-elf-4.4.2/lib/gcc/mips-elf/4.4.2/libgcc.a(_sf_to_df.o)
                0x0000000088310411                __extendsfdf2
 .text          0x000000008831043c        0x0 C:\CSDTK4\/mips-elf-4.4.2/lib/gcc/mips-elf/4.4.2/libgcc.a(_thenan_sf.o)
 .text          0x000000008831043c       0x64 C:\CSDTK4\/mips-elf-4.4.2/lib/gcc/mips-elf/4.4.2/libgcc.a(_usi_to_sf.o)
                0x000000008831043d                __floatunsisf
 .text          0x00000000883104a0      0x2f0 C:\CSDTK4\/mips-elf-4.4.2/lib/gcc/mips-elf/4.4.2/libgcc.a(_addsub_df.o)
                0x0000000088310709                __subdf3
                0x0000000088310751                __adddf3
 .text          0x0000000088310790      0x1b8 C:\CSDTK4\/mips-elf-4.4.2/lib/gcc/mips-elf/4.4.2/libgcc.a(_mul_df.o)
                0x0000000088310791                __muldf3
 .text          0x0000000088310948      0x138 C:\CSDTK4\/mips-elf-4.4.2/lib/gcc/mips-elf/4.4.2/libgcc.a(_div_df.o)
                0x0000000088310949                __divdf3
 .text          0x0000000088310a80       0x48 C:\CSDTK4\/mips-elf-4.4.2/lib/gcc/mips-elf/4.4.2/libgcc.a(_eq_df.o)
                0x0000000088310a81                __eqdf2
 .text          0x0000000088310ac8       0x48 C:\CSDTK4\/mips-elf-4.4.2/lib/gcc/mips-elf/4.4.2/libgcc.a(_gt_df.o)
                0x0000000088310ac9                __gtdf2
 .text          0x0000000088310b10       0x48 C:\CSDTK4\/mips-elf-4.4.2/lib/gcc/mips-elf/4.4.2/libgcc.a(_ge_df.o)
                0x0000000088310b11                __gedf2
 .text          0x0000000088310b58       0x78 C:\CSDTK4\/mips-elf-4.4.2/lib/gcc/mips-elf/4.4.2/libgcc.a(_si_to_df.o)
                0x0000000088310b59                __floatsidf
 .text          0x0000000088310bd0       0x64 C:\CSDTK4\/mips-elf-4.4.2/lib/gcc/mips-elf/4.4.2/libgcc.a(_df_to_si.o)
                0x0000000088310bd1                __fixdfsi
 .text          0x0000000088310c34       0x20 C:\CSDTK4\/mips-elf-4.4.2/lib/gcc/mips-elf/4.4.2/libgcc.a(_make_df.o)
                0x0000000088310c35                __make_dp
 .text          0x0000000088310c54       0x3c C:\CSDTK4\/mips-elf-4.4.2/lib/gcc/mips-elf/4.4.2/libgcc.a(_df_to_sf.o)
                0x0000000088310c55                __truncdfsf2
 .text          0x0000000088310c90        0x0 C:\CSDTK4\/mips-elf-4.4.2/lib/gcc/mips-elf/4.4.2/libgcc.a(_thenan_df.o)
 .text          0x0000000088310c90       0x3c C:\CSDTK4\/mips-elf-4.4.2/lib/gcc/mips-elf/4.4.2/libgcc.a(_lshrdi3.o)
                0x0000000088310c91                __lshrdi3
 .text          0x0000000088310ccc       0x3c C:\CSDTK4\/mips-elf-4.4.2/lib/gcc/mips-elf/4.4.2/libgcc.a(_ashldi3.o)
                0x0000000088310ccd                __ashldi3
 .text          0x0000000088310d08       0x28 C:\CSDTK4\/mips-elf-4.4.2/lib/gcc/mips-elf/4.4.2/libgcc.a(_ucmpdi2.o)
                0x0000000088310d09                __ucmpdi2
 .text          0x0000000088310d30       0x3c C:\CSDTK4\/mips-elf-4.4.2/lib/gcc/mips-elf/4.4.2/libgcc.a(_clzsi2.o)
                0x0000000088310d31                __clzsi2
 .text          0x0000000088310d6c       0xc4 C:\CSDTK4\/mips-elf-4.4.2/lib/gcc/mips-elf/4.4.2/libgcc.a(_pack_sf.o)
                0x0000000088310d6d                __pack_f
 .text          0x0000000088310e30       0x7c C:\CSDTK4\/mips-elf-4.4.2/lib/gcc/mips-elf/4.4.2/libgcc.a(_unpack_sf.o)
                0x0000000088310e31                __unpack_f
 .text          0x0000000088310eac       0x18 C:\CSDTK4\/mips-elf-4.4.2/lib/gcc/mips-elf/4.4.2/libgcc.a(_make_sf.o)
                0x0000000088310ead                __make_fp
 .text          0x0000000088310ec4      0x1a4 C:\CSDTK4\/mips-elf-4.4.2/lib/gcc/mips-elf/4.4.2/libgcc.a(_pack_df.o)
                0x0000000088310ec5                __pack_d
 .text          0x0000000088311068       0xac C:\CSDTK4\/mips-elf-4.4.2/lib/gcc/mips-elf/4.4.2/libgcc.a(_unpack_df.o)
                0x0000000088311069                __unpack_d
 .text          0x0000000088311114       0x78 C:\CSDTK4\/mips-elf-4.4.2/lib/gcc/mips-elf/4.4.2/libgcc.a(_fpcmp_parts_df.o)
                0x0000000088311115                __fpcmp_parts_d
 .text          0x000000008831118c        0x0 C:\CSDTK4\/mips-elf-4.4.2/lib/gcc/mips-elf/4.4.2/libgcc.a(_clz.o)
                0x0000000088311190                . = ALIGN (0x10)
 *fill*         0x000000008831118c        0x4 00

.text.Ql_WTD_GetWDIPinCfg
                0x0000000088311190        0xc
 .text.Ql_WTD_GetWDIPinCfg
                0x0000000088311190        0xc build/gcc/obj/custom/config/custom_sys_cfg.o
                0x0000000088311191                Ql_WTD_GetWDIPinCfg

.text.RIL_AUD_RegisterPlayCB
                0x000000008831119c       0x14
 .text.RIL_AUD_RegisterPlayCB
                0x000000008831119c       0x14 build/gcc/obj/ril/src/ril_audio.o
                0x000000008831119d                RIL_AUD_RegisterPlayCB

.text.RIL_AUD_GetRecordState
                0x00000000883111b0       0x5c
 .text.RIL_AUD_GetRecordState
                0x00000000883111b0       0x5c build/gcc/obj/ril/src/ril_audio.o
                0x00000000883111b1                RIL_AUD_GetRecordState

.text.RIL_AUD_StopPlayMemBg
                0x000000008831120c       0x40
 .text.RIL_AUD_StopPlayMemBg
                0x000000008831120c       0x40 build/gcc/obj/ril/src/ril_audio.o
                0x000000008831120d                RIL_AUD_StopPlayMemBg

.text.RIL_AUD_PlayMemBg
                0x000000008831124c       0x68
 .text.RIL_AUD_PlayMemBg
                0x000000008831124c       0x68 build/gcc/obj/ril/src/ril_audio.o
                0x000000008831124d                RIL_AUD_PlayMemBg

.text.RIL_AUD_StopPlayMem
                0x00000000883112b4       0x48
 .text.RIL_AUD_StopPlayMem
                0x00000000883112b4       0x48 build/gcc/obj/ril/src/ril_audio.o
                0x00000000883112b5                RIL_AUD_StopPlayMem

.text.RIL_AUD_PlayMem
                0x00000000883112fc       0x68
 .text.RIL_AUD_PlayMem
                0x00000000883112fc       0x68 build/gcc/obj/ril/src/ril_audio.o
                0x00000000883112fd                RIL_AUD_PlayMem

.text.RIL_AUD_StopRecord
                0x0000000088311364       0x48
 .text.RIL_AUD_StopRecord
                0x0000000088311364       0x48 build/gcc/obj/ril/src/ril_audio.o
                0x0000000088311365                RIL_AUD_StopRecord

.text.RIL_AUD_StartRecord
                0x00000000883113ac       0x78
 .text.RIL_AUD_StartRecord
                0x00000000883113ac       0x78 build/gcc/obj/ril/src/ril_audio.o
                0x00000000883113ad                RIL_AUD_StartRecord

.text.RIL_AUD_StopPlay
                0x0000000088311424       0x48
 .text.RIL_AUD_StopPlay
                0x0000000088311424       0x48 build/gcc/obj/ril/src/ril_audio.o
                0x0000000088311425                RIL_AUD_StopPlay

.text.RIL_AUD_GetVolume
                0x000000008831146c       0x4c
 .text.RIL_AUD_GetVolume
                0x000000008831146c       0x4c build/gcc/obj/ril/src/ril_audio.o
                0x000000008831146d                RIL_AUD_GetVolume

.text.RIL_AUD_SetVolume
                0x00000000883114b8       0x4c
 .text.RIL_AUD_SetVolume
                0x00000000883114b8       0x4c build/gcc/obj/ril/src/ril_audio.o
                0x00000000883114b9                RIL_AUD_SetVolume

.text.RIL_AUD_SetChannel
                0x0000000088311504       0x50
 .text.RIL_AUD_SetChannel
                0x0000000088311504       0x50 build/gcc/obj/ril/src/ril_audio.o
                0x0000000088311505                RIL_AUD_SetChannel

.text.RIL_AUD_GetChannel
                0x0000000088311554       0x4c
 .text.RIL_AUD_GetChannel
                0x0000000088311554       0x4c build/gcc/obj/ril/src/ril_audio.o
                0x0000000088311555                RIL_AUD_GetChannel

.text.RIL_AUD_PlayFile
                0x00000000883115a0       0x88
 .text.RIL_AUD_PlayFile
                0x00000000883115a0       0x88 build/gcc/obj/ril/src/ril_audio.o
                0x00000000883115a1                RIL_AUD_PlayFile

.text.ATResponse_AUD_handler
                0x0000000088311628       0xec
 .text.ATResponse_AUD_handler
                0x0000000088311628       0xec build/gcc/obj/ril/src/ril_audio.o

.text.Ql_RIL_RcvDataFrmCore
                0x0000000088311714       0x18
 .text.Ql_RIL_RcvDataFrmCore
                0x0000000088311714       0x18 build/gcc/obj/ril/src/ril_custom.o
                0x0000000088311715                Ql_RIL_RcvDataFrmCore

.text.RIL_HTTP_ReadResponse
                0x000000008831172c       0x68
 .text.RIL_HTTP_ReadResponse
                0x000000008831172c       0x68 build/gcc/obj/ril/src/ril_http.o
                0x000000008831172d                RIL_HTTP_ReadResponse

.text.RIL_HTTP_RequestToPost
                0x0000000088311794       0x74
 .text.RIL_HTTP_RequestToPost
                0x0000000088311794       0x74 build/gcc/obj/ril/src/ril_http.o
                0x0000000088311795                RIL_HTTP_RequestToPost

.text.RIL_HTTP_RequestToGet
                0x0000000088311808       0x58
 .text.RIL_HTTP_RequestToGet
                0x0000000088311808       0x58 build/gcc/obj/ril/src/ril_http.o
                0x0000000088311809                RIL_HTTP_RequestToGet

.text.RIL_HTTP_SetServerURL
                0x0000000088311860       0x74
 .text.RIL_HTTP_SetServerURL
                0x0000000088311860       0x74 build/gcc/obj/ril/src/ril_http.o
                0x0000000088311861                RIL_HTTP_SetServerURL

.text.RIL_HTTP_DownloadFile
                0x00000000883118d4       0x70
 .text.RIL_HTTP_DownloadFile
                0x00000000883118d4       0x70 build/gcc/obj/ril/src/ril_http.o
                0x00000000883118d5                RIL_HTTP_DownloadFile

.text.ATRsp_QHTTP_Handler
                0x0000000088311944       0xb8
 .text.ATRsp_QHTTP_Handler
                0x0000000088311944       0xb8 build/gcc/obj/ril/src/ril_http.o

.text.OnURCHandler_HTTP
                0x00000000883119fc       0x48
 .text.OnURCHandler_HTTP
                0x00000000883119fc       0x48 build/gcc/obj/ril/src/ril_urc.o

.text.OnURCHandler_AudPlayInd
                0x0000000088311a44       0x34
 .text.OnURCHandler_AudPlayInd
                0x0000000088311a44       0x34 build/gcc/obj/ril/src/ril_urc.o

.text.Ql_RIL_IsURCStr
                0x0000000088311a78       0x54
 .text.Ql_RIL_IsURCStr
                0x0000000088311a78       0x54 build/gcc/obj/ril/src/ril_urc.o
                0x0000000088311a79                Ql_RIL_IsURCStr

.text.OnURCHandler_MQTT_DISC
                0x0000000088311acc       0xac
 .text.OnURCHandler_MQTT_DISC
                0x0000000088311acc       0xac build/gcc/obj/ril/src/ril_urc.o

.text.OnURCHandler_MQTT_CLOSE
                0x0000000088311b78       0xac
 .text.OnURCHandler_MQTT_CLOSE
                0x0000000088311b78       0xac build/gcc/obj/ril/src/ril_urc.o

.text.OnURCHandler_MQTT_STATE
                0x0000000088311c24       0x8c
 .text.OnURCHandler_MQTT_STATE
                0x0000000088311c24       0x8c build/gcc/obj/ril/src/ril_urc.o

.text.OnURCHandler_MQTT_TUNS
                0x0000000088311cb0       0xac
 .text.OnURCHandler_MQTT_TUNS
                0x0000000088311cb0       0xac build/gcc/obj/ril/src/ril_urc.o

.text.OnURCHandler_MQTT_PUB
                0x0000000088311d5c       0xcc
 .text.OnURCHandler_MQTT_PUB
                0x0000000088311d5c       0xcc build/gcc/obj/ril/src/ril_urc.o

.text.OnURCHandler_MQTT_SUB
                0x0000000088311e28       0xfc
 .text.OnURCHandler_MQTT_SUB
                0x0000000088311e28       0xfc build/gcc/obj/ril/src/ril_urc.o

.text.OnURCHandler_MQTT_CONN
                0x0000000088311f24       0xb4
 .text.OnURCHandler_MQTT_CONN
                0x0000000088311f24       0xb4 build/gcc/obj/ril/src/ril_urc.o

.text.OnURCHandler_MQTT_OPEN
                0x0000000088311fd8       0x8c
 .text.OnURCHandler_MQTT_OPEN
                0x0000000088311fd8       0x8c build/gcc/obj/ril/src/ril_urc.o

.text.OnURCHandler_AlarmRing
                0x0000000088312064       0x18
 .text.OnURCHandler_AlarmRing
                0x0000000088312064       0x18 build/gcc/obj/ril/src/ril_urc.o

.text.OnURCHandler_InitStat
                0x000000008831207c       0x3c
 .text.OnURCHandler_InitStat
                0x000000008831207c       0x3c build/gcc/obj/ril/src/ril_urc.o

.text.OnURCHandler
                0x00000000883120b8       0x78
 .text.OnURCHandler
                0x00000000883120b8       0x78 build/gcc/obj/ril/src/ril_urc.o
                0x00000000883120b9                OnURCHandler

.text.OnURCHandler_FTP_Upload
                0x0000000088312130       0x74
 .text.OnURCHandler_FTP_Upload
                0x0000000088312130       0x74 build/gcc/obj/ril/src/ril_urc.o

.text.OnURCHandler_FTP_Download
                0x00000000883121a4       0x74
 .text.OnURCHandler_FTP_Download
                0x00000000883121a4       0x74 build/gcc/obj/ril/src/ril_urc.o

.text.OnURCHandler_CFUN
                0x0000000088312218       0x64
 .text.OnURCHandler_CFUN
                0x0000000088312218       0x64 build/gcc/obj/ril/src/ril_urc.o

.text.OnURCHandler_Voltage
                0x000000008831227c       0x5c
 .text.OnURCHandler_Voltage
                0x000000008831227c       0x5c build/gcc/obj/ril/src/ril_urc.o

.text.OnURCHandler_Network
                0x00000000883122d8       0xd4
 .text.OnURCHandler_Network
                0x00000000883122d8       0xd4 build/gcc/obj/ril/src/ril_urc.o

.text.OnURCHandler_Call
                0x00000000883123ac      0x184
 .text.OnURCHandler_Call
                0x00000000883123ac      0x184 build/gcc/obj/ril/src/ril_urc.o

.text.OnURCHandler_SIM
                0x0000000088312530       0x90
 .text.OnURCHandler_SIM
                0x0000000088312530       0x90 build/gcc/obj/ril/src/ril_urc.o

.text.OnURCHandler_SMS
                0x00000000883125c0       0xac
 .text.OnURCHandler_SMS
                0x00000000883125c0       0xac build/gcc/obj/ril/src/ril_urc.o

.text.Ql_RIL_AT_GetErrCode
                0x000000008831266c        0xc
 .text.Ql_RIL_AT_GetErrCode
                0x000000008831266c        0xc build/gcc/obj/ril/src/ril_atResponse.o
                0x000000008831266d                Ql_RIL_AT_GetErrCode

.text.Ql_RIL_AT_SetErrCode
                0x0000000088312678        0xc
 .text.Ql_RIL_AT_SetErrCode
                0x0000000088312678        0xc build/gcc/obj/ril/src/ril_atResponse.o
                0x0000000088312679                Ql_RIL_AT_SetErrCode

.text.Default_atRsp_callback
                0x0000000088312684       0x80
 .text.Default_atRsp_callback
                0x0000000088312684       0x80 build/gcc/obj/ril/src/ril_atResponse.o
                0x0000000088312685                Default_atRsp_callback

.text.RIL_Parse_value
                0x0000000088312704       0x70
 .text.RIL_Parse_value
                0x0000000088312704       0x70 build/gcc/obj/ril/src/ril_network.o
                0x0000000088312705                RIL_Parse_value

.text.RIL_NW_GetOperator
                0x0000000088312774       0x4c
 .text.RIL_NW_GetOperator
                0x0000000088312774       0x4c build/gcc/obj/ril/src/ril_network.o
                0x0000000088312775                RIL_NW_GetOperator

.text.RIL_NW_ClosePDPContext
                0x00000000883127c0       0x44
 .text.RIL_NW_ClosePDPContext
                0x00000000883127c0       0x44 build/gcc/obj/ril/src/ril_network.o
                0x00000000883127c1                RIL_NW_ClosePDPContext

.text.RIL_NW_GetIPStatus
                0x0000000088312804       0x28
 .text.RIL_NW_GetIPStatus
                0x0000000088312804       0x28 build/gcc/obj/ril/src/ril_network.o
                0x0000000088312805                RIL_NW_GetIPStatus

.text.RIL_NW_GetGPRSState
                0x000000008831282c       0x4c
 .text.RIL_NW_GetGPRSState
                0x000000008831282c       0x4c build/gcc/obj/ril/src/ril_network.o
                0x000000008831282d                RIL_NW_GetGPRSState

.text.RIL_NW_GetGSMState
                0x0000000088312878       0x50
 .text.RIL_NW_GetGSMState
                0x0000000088312878       0x50 build/gcc/obj/ril/src/ril_network.o
                0x0000000088312879                RIL_NW_GetGSMState

.text.ATRsp_COPS_Handler
                0x00000000883128c8       0xa8
 .text.ATRsp_COPS_Handler
                0x00000000883128c8       0xa8 build/gcc/obj/ril/src/ril_network.o

.text.ATRsp_QIDEACT_Hdlr
                0x0000000088312970       0x40
 .text.ATRsp_QIDEACT_Hdlr
                0x0000000088312970       0x40 build/gcc/obj/ril/src/ril_network.o

.text.ATResponse_CSQ_Handler
                0x00000000883129b0       0x70
 .text.ATResponse_CSQ_Handler
                0x00000000883129b0       0x70 build/gcc/obj/ril/src/ril_network.o

.text.ATResponse_CGREG_Handler
                0x0000000088312a20       0x74
 .text.ATResponse_CGREG_Handler
                0x0000000088312a20       0x74 build/gcc/obj/ril/src/ril_network.o

.text.ATResponse_CREG_Handler
                0x0000000088312a94       0x74
 .text.ATResponse_CREG_Handler
                0x0000000088312a94       0x74 build/gcc/obj/ril/src/ril_network.o

.text.RIL_NW_OpenPDPContext
                0x0000000088312b08       0x6c
 .text.RIL_NW_OpenPDPContext
                0x0000000088312b08       0x6c build/gcc/obj/ril/src/ril_network.o
                0x0000000088312b09                RIL_NW_OpenPDPContext

.text.RIL_NW_SetAPN
                0x0000000088312b74       0x90
 .text.RIL_NW_SetAPN
                0x0000000088312b74       0x90 build/gcc/obj/ril/src/ril_network.o
                0x0000000088312b75                RIL_NW_SetAPN

.text.RIL_NW_SetGPRSContext
                0x0000000088312c04       0x4c
 .text.RIL_NW_SetGPRSContext
                0x0000000088312c04       0x4c build/gcc/obj/ril/src/ril_network.o
                0x0000000088312c05                RIL_NW_SetGPRSContext

.text.RIL_NW_GetSignalQuality
                0x0000000088312c50       0x5c
 .text.RIL_NW_GetSignalQuality
                0x0000000088312c50       0x5c build/gcc/obj/ril/src/ril_network.o
                0x0000000088312c51                RIL_NW_GetSignalQuality

.text.RIL_NW_GetIpStatusByName
                0x0000000088312cac       0xdc
 .text.RIL_NW_GetIpStatusByName
                0x0000000088312cac       0xdc build/gcc/obj/ril/src/ril_network.o
                0x0000000088312cad                RIL_NW_GetIpStatusByName

.text.ATResponse_IPStatus_Handler
                0x0000000088312d88       0xa4
 .text.ATResponse_IPStatus_Handler
                0x0000000088312d88       0xa4 build/gcc/obj/ril/src/ril_network.o

.text.OnURCHandler_QCELLLocation
                0x0000000088312e2c       0xd0
 .text.OnURCHandler_QCELLLocation
                0x0000000088312e2c       0xd0 build/gcc/obj/ril/src/ril_location.o
                0x0000000088312e2d                OnURCHandler_QCELLLocation

.text.RIL_GetLocationByCell
                0x0000000088312efc       0x94
 .text.RIL_GetLocationByCell
                0x0000000088312efc       0x94 build/gcc/obj/ril/src/ril_location.o
                0x0000000088312efd                RIL_GetLocationByCell

.text.RIL_GetLocation_Ex
                0x0000000088312f90       0x9c
 .text.RIL_GetLocation_Ex
                0x0000000088312f90       0x9c build/gcc/obj/ril/src/ril_location.o
                0x0000000088312f91                RIL_GetLocation_Ex

.text.RIL_GetLocation
                0x000000008831302c       0x84
 .text.RIL_GetLocation
                0x000000008831302c       0x84 build/gcc/obj/ril/src/ril_location.o
                0x000000008831302d                RIL_GetLocation

.text.ATResponse_GetLocation_Ex_Handler
                0x00000000883130b0       0xc0
 .text.ATResponse_GetLocation_Ex_Handler
                0x00000000883130b0       0xc0 build/gcc/obj/ril/src/ril_location.o

.text.RIL_NTP_START
                0x0000000088313170       0x68
 .text.RIL_NTP_START
                0x0000000088313170       0x68 build/gcc/obj/ril/src/ril_ntp.o
                0x0000000088313171                RIL_NTP_START

.text.OnURCHandler_NTPCMD
                0x00000000883131d8       0x44
 .text.OnURCHandler_NTPCMD
                0x00000000883131d8       0x44 build/gcc/obj/ril/src/ril_ntp.o
                0x00000000883131d9                OnURCHandler_NTPCMD

.text.RIL_Telephony_Hangup
                0x000000008831321c       0x20
 .text.RIL_Telephony_Hangup
                0x000000008831321c       0x20 build/gcc/obj/ril/src/ril_telephony.o
                0x000000008831321d                RIL_Telephony_Hangup

.text.RIL_Telephony_Answer
                0x000000008831323c       0x24
 .text.RIL_Telephony_Answer
                0x000000008831323c       0x24 build/gcc/obj/ril/src/ril_telephony.o
                0x000000008831323d                RIL_Telephony_Answer

.text.Telephony_Answer_AT_handler
                0x0000000088313260       0x74
 .text.Telephony_Answer_AT_handler
                0x0000000088313260       0x74 build/gcc/obj/ril/src/ril_telephony.o

.text.Telephony_Dial_AT_handler
                0x00000000883132d4       0x9c
 .text.Telephony_Dial_AT_handler
                0x00000000883132d4       0x9c build/gcc/obj/ril/src/ril_telephony.o

.text.RIL_Telephony_Dial
                0x0000000088313370       0x5c
 .text.RIL_Telephony_Dial
                0x0000000088313370       0x5c build/gcc/obj/ril/src/ril_telephony.o
                0x0000000088313371                RIL_Telephony_Dial

.text.ADP_SMS_ConvIdxToCoreIdx
                0x00000000883133cc       0x14
 .text.ADP_SMS_ConvIdxToCoreIdx
                0x00000000883133cc       0x14 build/gcc/obj/ril/src/ril_sms.o

.text.CmdGetStorageInfo
                0x00000000883133e0       0x88
 .text.CmdGetStorageInfo
                0x00000000883133e0       0x88 build/gcc/obj/ril/src/ril_sms.o

.text.RIL_SMS_DeleteSMS
                0x0000000088313468       0xa4
 .text.RIL_SMS_DeleteSMS
                0x0000000088313468       0xa4 build/gcc/obj/ril/src/ril_sms.o
                0x0000000088313469                RIL_SMS_DeleteSMS

.text.CmdReadPDUMsg
                0x000000008831350c       0xb0
 .text.CmdReadPDUMsg
                0x000000008831350c       0xb0 build/gcc/obj/ril/src/ril_sms.o

.text.RIL_SMS_GetStorage
                0x00000000883135bc       0x10
 .text.RIL_SMS_GetStorage
                0x00000000883135bc       0x10 build/gcc/obj/ril/src/ril_sms.o
                0x00000000883135bd                RIL_SMS_GetStorage

.text.RIL_SMS_SetStorage
                0x00000000883135cc       0xa0
 .text.RIL_SMS_SetStorage
                0x00000000883135cc       0xa0 build/gcc/obj/ril/src/ril_sms.o
                0x00000000883135cd                RIL_SMS_SetStorage

.text.ConvStringToPhoneNumber
                0x000000008831366c       0xa0
 .text.ConvStringToPhoneNumber
                0x000000008831366c       0xa0 build/gcc/obj/ril/src/ril_sms.o

.text.SMS_CMD_GeneralHandler
                0x000000008831370c      0x2b8
 .text.SMS_CMD_GeneralHandler
                0x000000008831370c      0x2b8 build/gcc/obj/ril/src/ril_sms.o

.text.RIL_SMS_ReadSMS_PDU
                0x00000000883139c4       0x80
 .text.RIL_SMS_ReadSMS_PDU
                0x00000000883139c4       0x80 build/gcc/obj/ril/src/ril_sms.o
                0x00000000883139c5                RIL_SMS_ReadSMS_PDU

.text.CmdSendPDUMsg
                0x0000000088313a44       0xdc
 .text.CmdSendPDUMsg
                0x0000000088313a44       0xdc build/gcc/obj/ril/src/ril_sms.o

.text.RIL_SMS_SendSMS_Text_Ext
                0x0000000088313b20      0x1bc
 .text.RIL_SMS_SendSMS_Text_Ext
                0x0000000088313b20      0x1bc build/gcc/obj/ril/src/ril_sms.o
                0x0000000088313b21                RIL_SMS_SendSMS_Text_Ext

.text.RIL_SMS_SendSMS_Text
                0x0000000088313cdc      0x16c
 .text.RIL_SMS_SendSMS_Text
                0x0000000088313cdc      0x16c build/gcc/obj/ril/src/ril_sms.o
                0x0000000088313cdd                RIL_SMS_SendSMS_Text

.text.RIL_SMS_SendSMS_PDU
                0x0000000088313e48       0x64
 .text.RIL_SMS_SendSMS_PDU
                0x0000000088313e48       0x64 build/gcc/obj/ril/src/ril_sms.o
                0x0000000088313e49                RIL_SMS_SendSMS_PDU

.text.T.94      0x0000000088313eac       0x6c
 .text.T.94     0x0000000088313eac       0x6c build/gcc/obj/ril/src/ril_sms.o

.text.RIL_SMS_ReadSMS_Text
                0x0000000088313f18      0x24c
 .text.RIL_SMS_ReadSMS_Text
                0x0000000088313f18      0x24c build/gcc/obj/ril/src/ril_sms.o
                0x0000000088313f19                RIL_SMS_ReadSMS_Text

.text.QSDK_Get_Str
                0x0000000088314164       0x90
 .text.QSDK_Get_Str
                0x0000000088314164       0x90 build/gcc/obj/ril/src/ril_system.o
                0x0000000088314165                QSDK_Get_Str

.text.RIL_GetIMEI
                0x00000000883141f4       0x48
 .text.RIL_GetIMEI
                0x00000000883141f4       0x48 build/gcc/obj/ril/src/ril_system.o
                0x00000000883141f5                RIL_GetIMEI

.text.RIL_GetPowerSupply
                0x000000008831423c       0x38
 .text.RIL_GetPowerSupply
                0x000000008831423c       0x38 build/gcc/obj/ril/src/ril_system.o
                0x000000008831423d                RIL_GetPowerSupply

.text.RIL_QuerySysInitStatus
                0x0000000088314274       0x24
 .text.RIL_QuerySysInitStatus
                0x0000000088314274       0x24 build/gcc/obj/ril/src/ril_system.o
                0x0000000088314275                RIL_QuerySysInitStatus

.text.ATRsp_IMEI_Handler
                0x0000000088314298       0x5c
 .text.ATRsp_IMEI_Handler
                0x0000000088314298       0x5c build/gcc/obj/ril/src/ril_system.o

.text.Power_ATResponse_Hanlder
                0x00000000883142f4       0xf0
 .text.Power_ATResponse_Hanlder
                0x00000000883142f4       0xf0 build/gcc/obj/ril/src/ril_system.o

.text.SYS_ATResponse_Hanlder
                0x00000000883143e4       0xa8
 .text.SYS_ATResponse_Hanlder
                0x00000000883143e4       0xa8 build/gcc/obj/ril/src/ril_system.o

.text.OnURCHandler_QWDTMF
                0x000000008831448c       0x60
 .text.OnURCHandler_QWDTMF
                0x000000008831448c       0x60 build/gcc/obj/ril/src/Ril_dtmf.o
                0x000000008831448d                OnURCHandler_QWDTMF

.text.OnURCHandler_QToneDet
                0x00000000883144ec       0x9c
 .text.OnURCHandler_QToneDet
                0x00000000883144ec       0x9c build/gcc/obj/ril/src/Ril_dtmf.o
                0x00000000883144ed                OnURCHandler_QToneDet

.text.RIL_WDTMF_Send
                0x0000000088314588       0x70
 .text.RIL_WDTMF_Send
                0x0000000088314588       0x70 build/gcc/obj/ril/src/Ril_dtmf.o
                0x0000000088314589                RIL_WDTMF_Send

.text.RIL_ToneDet_Get
                0x00000000883145f8       0x70
 .text.RIL_ToneDet_Get
                0x00000000883145f8       0x70 build/gcc/obj/ril/src/Ril_dtmf.o
                0x00000000883145f9                RIL_ToneDet_Get

.text.RIL_ToneDet_Set
                0x0000000088314668       0x6c
 .text.RIL_ToneDet_Set
                0x0000000088314668       0x6c build/gcc/obj/ril/src/Ril_dtmf.o
                0x0000000088314669                RIL_ToneDet_Set

.text.RIL_ToneDet_Close
                0x00000000883146d4       0x44
 .text.RIL_ToneDet_Close
                0x00000000883146d4       0x44 build/gcc/obj/ril/src/Ril_dtmf.o
                0x00000000883146d5                RIL_ToneDet_Close

.text.RIL_ToneDet_Open
                0x0000000088314718       0x4c
 .text.RIL_ToneDet_Open
                0x0000000088314718       0x4c build/gcc/obj/ril/src/Ril_dtmf.o
                0x0000000088314719                RIL_ToneDet_Open

.text.ATResponse_Handler
                0x0000000088314764       0xf0
 .text.ATResponse_Handler
                0x0000000088314764       0x94 build/gcc/obj/ril/src/Ril_dtmf.o
 .text.ATResponse_Handler
                0x00000000883147f8       0x5c build/gcc/obj/ril/src/ril_mqtt.o

.text.RIL_SIM_GetCCID
                0x0000000088314854       0x50
 .text.RIL_SIM_GetCCID
                0x0000000088314854       0x50 build/gcc/obj/ril/src/ril_sim.o
                0x0000000088314855                RIL_SIM_GetCCID

.text.RIL_SIM_GetIMSI
                0x00000000883148a4       0x50
 .text.RIL_SIM_GetIMSI
                0x00000000883148a4       0x50 build/gcc/obj/ril/src/ril_sim.o
                0x00000000883148a5                RIL_SIM_GetIMSI

.text.RIL_SIM_GetSimState
                0x00000000883148f4       0x50
 .text.RIL_SIM_GetSimState
                0x00000000883148f4       0x50 build/gcc/obj/ril/src/ril_sim.o
                0x00000000883148f5                RIL_SIM_GetSimState

.text.ATRsp_CCID_Handler
                0x0000000088314944       0xa8
 .text.ATRsp_CCID_Handler
                0x0000000088314944       0xa8 build/gcc/obj/ril/src/ril_sim.o

.text.ATRsp_IMSI_Handler
                0x00000000883149ec       0x5c
 .text.ATRsp_IMSI_Handler
                0x00000000883149ec       0x5c build/gcc/obj/ril/src/ril_sim.o

.text.RIL_SIM_GetSimStateByName
                0x0000000088314a48       0xd0
 .text.RIL_SIM_GetSimStateByName
                0x0000000088314a48       0xd0 build/gcc/obj/ril/src/ril_sim.o
                0x0000000088314a49                RIL_SIM_GetSimStateByName

.text.ATResponse_CPIN_Handler
                0x0000000088314b18       0xe8
 .text.ATResponse_CPIN_Handler
                0x0000000088314b18       0xe8 build/gcc/obj/ril/src/ril_sim.o

.text.RIL_QLBS_Loc
                0x0000000088314c00       0x4c
 .text.RIL_QLBS_Loc
                0x0000000088314c00       0x4c build/gcc/obj/ril/src/ril_location2.o
                0x0000000088314c01                RIL_QLBS_Loc

.text.RIL_QLBS_Cfg
                0x0000000088314c4c       0xcc
 .text.RIL_QLBS_Cfg
                0x0000000088314c4c       0xcc build/gcc/obj/ril/src/ril_location2.o
                0x0000000088314c4d                RIL_QLBS_Cfg

.text.RIL_QLBS_Loc_Ex
                0x0000000088314d18       0x7c
 .text.RIL_QLBS_Loc_Ex
                0x0000000088314d18       0x7c build/gcc/obj/ril/src/ril_location2.o
                0x0000000088314d19                RIL_QLBS_Loc_Ex

.text.ATResponse_Qlbs_Ex_Handler
                0x0000000088314d94      0x150
 .text.ATResponse_Qlbs_Ex_Handler
                0x0000000088314d94      0x150 build/gcc/obj/ril/src/ril_location2.o

.text.OnURCHandler_QLBS
                0x0000000088314ee4      0x184
 .text.OnURCHandler_QLBS
                0x0000000088314ee4      0x184 build/gcc/obj/ril/src/ril_location2.o
                0x0000000088314ee5                OnURCHandler_QLBS

.text.RIL_GNSS_EPO_Config_APN
                0x0000000088315068       0x98
 .text.RIL_GNSS_EPO_Config_APN
                0x0000000088315068       0x98 build/gcc/obj/ril/src/ril_gnss.o
                0x0000000088315069                RIL_GNSS_EPO_Config_APN

.text.RIL_GNSS_AGPSAID
                0x0000000088315100       0x4c
 .text.RIL_GNSS_AGPSAID
                0x0000000088315100       0x4c build/gcc/obj/ril/src/ril_gnss.o
                0x0000000088315101                RIL_GNSS_AGPSAID

.text.RIL_GNSS_AGPS
                0x000000008831514c       0x58
 .text.RIL_GNSS_AGPS
                0x000000008831514c       0x58 build/gcc/obj/ril/src/ril_gnss.o
                0x000000008831514d                RIL_GNSS_AGPS

.text.RIL_GNSS_Read_TimeSync_Status
                0x00000000883151a4       0x6c
 .text.RIL_GNSS_Read_TimeSync_Status
                0x00000000883151a4       0x6c build/gcc/obj/ril/src/ril_gnss.o
                0x00000000883151a5                RIL_GNSS_Read_TimeSync_Status

.text.RIL_GNSS_SetRefLoc
                0x0000000088315210       0x6c
 .text.RIL_GNSS_SetRefLoc
                0x0000000088315210       0x6c build/gcc/obj/ril/src/ril_gnss.o
                0x0000000088315211                RIL_GNSS_SetRefLoc

.text.RIL_GNSS_Open
                0x000000008831527c       0x6c
 .text.RIL_GNSS_Open
                0x000000008831527c       0x6c build/gcc/obj/ril/src/ril_gnss.o
                0x000000008831527d                RIL_GNSS_Open

.text.RIL_GNSS_CMD_Send
                0x00000000883152e8       0x68
 .text.RIL_GNSS_CMD_Send
                0x00000000883152e8       0x68 build/gcc/obj/ril/src/ril_gnss.o
                0x00000000883152e9                RIL_GNSS_CMD_Send

.text.RIL_GNSS_GetPowerState
                0x0000000088315350       0x50
 .text.RIL_GNSS_GetPowerState
                0x0000000088315350       0x50 build/gcc/obj/ril/src/ril_gnss.o
                0x0000000088315351                RIL_GNSS_GetPowerState

.text.ATResponse_GNSSReadTS_Hdlr
                0x00000000883153a0       0xa8
 .text.ATResponse_GNSSReadTS_Hdlr
                0x00000000883153a0       0xa8 build/gcc/obj/ril/src/ril_gnss.o

.text.ATResponse_QGNSSC_Handler
                0x0000000088315448       0xa8
 .text.ATResponse_QGNSSC_Handler
                0x0000000088315448       0xa8 build/gcc/obj/ril/src/ril_gnss.o

.text.RIL_GNSS_Read
                0x00000000883154f0       0xbc
 .text.RIL_GNSS_Read
                0x00000000883154f0       0xbc build/gcc/obj/ril/src/ril_gnss.o
                0x00000000883154f1                RIL_GNSS_Read

.text.ATResponse_GNSSRead_Hdlr
                0x00000000883155ac      0x1f4
 .text.ATResponse_GNSSRead_Hdlr
                0x00000000883155ac      0x1f4 build/gcc/obj/ril/src/ril_gnss.o

.text.OnURCHandler_GNSSAGPS
                0x00000000883157a0       0x44
 .text.OnURCHandler_GNSSAGPS
                0x00000000883157a0       0x44 build/gcc/obj/ril/src/ril_gnss.o
                0x00000000883157a1                OnURCHandler_GNSSAGPS

.text.OnURCHandler_GNSSCMD
                0x00000000883157e4       0x44
 .text.OnURCHandler_GNSSCMD
                0x00000000883157e4       0x44 build/gcc/obj/ril/src/ril_gnss.o
                0x00000000883157e5                OnURCHandler_GNSSCMD

.text.RIL_GetInitCmdCnt
                0x0000000088315828        0x4
 .text.RIL_GetInitCmdCnt
                0x0000000088315828        0x4 build/gcc/obj/ril/src/ril_init.o
                0x0000000088315829                RIL_GetInitCmdCnt

.text.RIL_GetLimitedCmdCnt
                0x000000008831582c        0x4
 .text.RIL_GetLimitedCmdCnt
                0x000000008831582c        0x4 build/gcc/obj/ril/src/ril_init.o
                0x000000008831582d                RIL_GetLimitedCmdCnt

.text.RIL_FTP_QIDEACT
                0x0000000088315830       0x2c
 .text.RIL_FTP_QIDEACT
                0x0000000088315830       0x2c build/gcc/obj/ril/src/ril_ftp.o
                0x0000000088315831                RIL_FTP_QIDEACT

.text.Callback_QIDEACT
                0x000000008831585c       0x40
 .text.Callback_QIDEACT
                0x000000008831585c       0x40 build/gcc/obj/ril/src/ril_ftp.o

.text.RIL_FTP_QFTPRMDIR
                0x000000008831589c       0x64
 .text.RIL_FTP_QFTPRMDIR
                0x000000008831589c       0x64 build/gcc/obj/ril/src/ril_ftp.o
                0x000000008831589d                RIL_FTP_QFTPRMDIR

.text.RIL_FTP_QFTPMKDIR
                0x0000000088315900       0x64
 .text.RIL_FTP_QFTPMKDIR
                0x0000000088315900       0x64 build/gcc/obj/ril/src/ril_ftp.o
                0x0000000088315901                RIL_FTP_QFTPMKDIR

.text.RIL_FTP_QFTPDELETE
                0x0000000088315964       0x64
 .text.RIL_FTP_QFTPDELETE
                0x0000000088315964       0x64 build/gcc/obj/ril/src/ril_ftp.o
                0x0000000088315965                RIL_FTP_QFTPDELETE

.text.RIL_FTP_QFTPSIZE
                0x00000000883159c8       0x70
 .text.RIL_FTP_QFTPSIZE
                0x00000000883159c8       0x70 build/gcc/obj/ril/src/ril_ftp.o
                0x00000000883159c9                RIL_FTP_QFTPSIZE

.text.RIL_FTP_QFTPRENAME
                0x0000000088315a38       0x6c
 .text.RIL_FTP_QFTPRENAME
                0x0000000088315a38       0x6c build/gcc/obj/ril/src/ril_ftp.o
                0x0000000088315a39                RIL_FTP_QFTPRENAME

.text.RIL_FTP_QFTPLEN
                0x0000000088315aa4       0x60
 .text.RIL_FTP_QFTPLEN
                0x0000000088315aa4       0x60 build/gcc/obj/ril/src/ril_ftp.o
                0x0000000088315aa5                RIL_FTP_QFTPLEN

.text.RIL_FTP_QFTPSTAT
                0x0000000088315b04       0x60
 .text.RIL_FTP_QFTPSTAT
                0x0000000088315b04       0x60 build/gcc/obj/ril/src/ril_ftp.o
                0x0000000088315b05                RIL_FTP_QFTPSTAT

.text.RIL_FTP_QFTPCFG
                0x0000000088315b64       0x70
 .text.RIL_FTP_QFTPCFG
                0x0000000088315b64       0x70 build/gcc/obj/ril/src/ril_ftp.o
                0x0000000088315b65                RIL_FTP_QFTPCFG

.text.RIL_FTP_QFTPPATH
                0x0000000088315bd4       0x64
 .text.RIL_FTP_QFTPPATH
                0x0000000088315bd4       0x64 build/gcc/obj/ril/src/ril_ftp.o
                0x0000000088315bd5                RIL_FTP_QFTPPATH

.text.RIL_FTP_QFTPGET
                0x0000000088315c38       0x74
 .text.RIL_FTP_QFTPGET
                0x0000000088315c38       0x74 build/gcc/obj/ril/src/ril_ftp.o
                0x0000000088315c39                RIL_FTP_QFTPGET

.text.RIL_FTP_QFTPPUT
                0x0000000088315cac       0x7c
 .text.RIL_FTP_QFTPPUT
                0x0000000088315cac       0x7c build/gcc/obj/ril/src/ril_ftp.o
                0x0000000088315cad                RIL_FTP_QFTPPUT

.text.RIL_FTP_QFTPCLOSE
                0x0000000088315d28       0x5c
 .text.RIL_FTP_QFTPCLOSE
                0x0000000088315d28       0x5c build/gcc/obj/ril/src/ril_ftp.o
                0x0000000088315d29                RIL_FTP_QFTPCLOSE

.text.ATResponse_QFTPSTAT_handler
                0x0000000088315d84       0xf4
 .text.ATResponse_QFTPSTAT_handler
                0x0000000088315d84       0xf4 build/gcc/obj/ril/src/ril_ftp.o

.text.ATResponse_FTP_handler_Common
                0x0000000088315e78       0xbc
 .text.ATResponse_FTP_handler_Common
                0x0000000088315e78       0xbc build/gcc/obj/ril/src/ril_ftp.o

.text.ATResponse_QFTPLEN_handler
                0x0000000088315f34       0xb8
 .text.ATResponse_QFTPLEN_handler
                0x0000000088315f34       0xb8 build/gcc/obj/ril/src/ril_ftp.o

.text.RIL_FTP_QFTPOPEN
                0x0000000088315fec      0x14c
 .text.RIL_FTP_QFTPOPEN
                0x0000000088315fec      0x14c build/gcc/obj/ril/src/ril_ftp.o
                0x0000000088315fed                RIL_FTP_QFTPOPEN

.text.RIL_Alarm_Remove
                0x0000000088316138       0x9c
 .text.RIL_Alarm_Remove
                0x0000000088316138       0x9c build/gcc/obj/ril/src/ril_alarm.o
                0x0000000088316139                RIL_Alarm_Remove

.text.RIL_Alarm_Query
                0x00000000883161d4       0x4c
 .text.RIL_Alarm_Query
                0x00000000883161d4       0x4c build/gcc/obj/ril/src/ril_alarm.o
                0x00000000883161d5                RIL_Alarm_Query

.text.RIL_Alarm_Create
                0x0000000088316220       0xa8
 .text.RIL_Alarm_Create
                0x0000000088316220       0xa8 build/gcc/obj/ril/src/ril_alarm.o
                0x0000000088316221                RIL_Alarm_Create

.text.ATResponse_QALARM_Handler
                0x00000000883162c8      0x1d4
 .text.ATResponse_QALARM_Handler
                0x00000000883162c8      0x1d4 build/gcc/obj/ril/src/ril_alarm.o

.text.Ql_StrPrefixMatch
                0x000000008831649c       0x20
 .text.Ql_StrPrefixMatch
                0x000000008831649c       0x20 build/gcc/obj/ril/src/ril_util.o
                0x000000008831649d                Ql_StrPrefixMatch

.text.Ql_GenHash
                0x00000000883164bc       0x34
 .text.Ql_GenHash
                0x00000000883164bc       0x34 build/gcc/obj/ril/src/ril_util.o
                0x00000000883164bd                Ql_GenHash

.text.Ql_RIL_FindString
                0x00000000883164f0       0x58
 .text.Ql_RIL_FindString
                0x00000000883164f0       0x58 build/gcc/obj/ril/src/ril_util.o
                0x00000000883164f1                Ql_RIL_FindString

.text.Ql_RIL_FindLine
                0x0000000088316548      0x160
 .text.Ql_RIL_FindLine
                0x0000000088316548      0x160 build/gcc/obj/ril/src/ril_util.o
                0x0000000088316549                Ql_RIL_FindLine

.text.Ql_StrToUpper
                0x00000000883166a8       0x38
 .text.Ql_StrToUpper
                0x00000000883166a8       0x38 build/gcc/obj/ril/src/ril_util.o
                0x00000000883166a9                Ql_StrToUpper

.text.Ql_HexStrToInt
                0x00000000883166e0       0x60
 .text.Ql_HexStrToInt
                0x00000000883166e0       0x60 build/gcc/obj/ril/src/ril_util.o
                0x00000000883166e1                Ql_HexStrToInt

.text.RIL_MQTT_QMTDISC
                0x0000000088316740       0x50
 .text.RIL_MQTT_QMTDISC
                0x0000000088316740       0x50 build/gcc/obj/ril/src/ril_mqtt.o
                0x0000000088316741                RIL_MQTT_QMTDISC

.text.RIL_MQTT_QMTCLOSE
                0x0000000088316790       0x50
 .text.RIL_MQTT_QMTCLOSE
                0x0000000088316790       0x50 build/gcc/obj/ril/src/ril_mqtt.o
                0x0000000088316791                RIL_MQTT_QMTCLOSE

.text.RIL_MQTT_QMTCONN
                0x00000000883167e0       0x78
 .text.RIL_MQTT_QMTCONN
                0x00000000883167e0       0x78 build/gcc/obj/ril/src/ril_mqtt.o
                0x00000000883167e1                RIL_MQTT_QMTCONN

.text.RIL_MQTT_QMTOPEN
                0x0000000088316858       0x60
 .text.RIL_MQTT_QMTOPEN
                0x0000000088316858       0x60 build/gcc/obj/ril/src/ril_mqtt.o
                0x0000000088316859                RIL_MQTT_QMTOPEN

.text.RIL_MQTT_QMTCFG_Version_Select
                0x00000000883168b8       0x58
 .text.RIL_MQTT_QMTCFG_Version_Select
                0x00000000883168b8       0x58 build/gcc/obj/ril/src/ril_mqtt.o
                0x00000000883168b9                RIL_MQTT_QMTCFG_Version_Select

.text.RIL_MQTT_QMTCFG_Showrecvlen
                0x0000000088316910       0x58
 .text.RIL_MQTT_QMTCFG_Showrecvlen
                0x0000000088316910       0x58 build/gcc/obj/ril/src/ril_mqtt.o
                0x0000000088316911                RIL_MQTT_QMTCFG_Showrecvlen

.text.RIL_MQTT_QMTCFG_Ali
                0x0000000088316968       0x60
 .text.RIL_MQTT_QMTCFG_Ali
                0x0000000088316968       0x60 build/gcc/obj/ril/src/ril_mqtt.o
                0x0000000088316969                RIL_MQTT_QMTCFG_Ali

.text.RIL_MQTT_QMTPUB
                0x00000000883169c8       0x90
 .text.RIL_MQTT_QMTPUB
                0x00000000883169c8       0x90 build/gcc/obj/ril/src/ril_mqtt.o
                0x00000000883169c9                RIL_MQTT_QMTPUB

.text.ATResponse_QMTPUB_handler
                0x0000000088316a58       0x70
 .text.ATResponse_QMTPUB_handler
                0x0000000088316a58       0x70 build/gcc/obj/ril/src/ril_mqtt.o

.text.RIL_MQTT_QMTUNS
                0x0000000088316ac8       0xf8
 .text.RIL_MQTT_QMTUNS
                0x0000000088316ac8       0xf8 build/gcc/obj/ril/src/ril_mqtt.o
                0x0000000088316ac9                RIL_MQTT_QMTUNS

.text.RIL_MQTT_QMTSUB
                0x0000000088316bc0      0x104
 .text.RIL_MQTT_QMTSUB
                0x0000000088316bc0      0x104 build/gcc/obj/ril/src/ril_mqtt.o
                0x0000000088316bc1                RIL_MQTT_QMTSUB

.text.toRadians
                0x0000000088316cc8       0x30
 .text.toRadians
                0x0000000088316cc8       0x30 build/gcc/obj/custom/main.o

.text.HexStringToInt
                0x0000000088316cf8       0x40
 .text.HexStringToInt
                0x0000000088316cf8       0x40 build/gcc/obj/custom/main.o
                0x0000000088316cf9                HexStringToInt

.text.convertNmeaToDecimal
                0x0000000088316d38       0xa0
 .text.convertNmeaToDecimal
                0x0000000088316d38       0xa0 build/gcc/obj/custom/main.o
                0x0000000088316d39                convertNmeaToDecimal

.text.GNSS_Get_FixStatus_from_RMC
                0x0000000088316dd8       0x44
 .text.GNSS_Get_FixStatus_from_RMC
                0x0000000088316dd8       0x44 build/gcc/obj/custom/main.o
                0x0000000088316dd9                GNSS_Get_FixStatus_from_RMC

.text.loadConfig
                0x0000000088316e1c      0xf84
 .text.loadConfig
                0x0000000088316e1c      0xf84 build/gcc/obj/custom/main.o
                0x0000000088316e1d                loadConfig

.text.SMS_PDUMode_Send
                0x0000000088317da0       0x84
 .text.SMS_PDUMode_Send
                0x0000000088317da0       0x84 build/gcc/obj/custom/main.o
                0x0000000088317da1                SMS_PDUMode_Send

.text.SMS_PDUMode_Read
                0x0000000088317e24      0x11c
 .text.SMS_PDUMode_Read
                0x0000000088317e24      0x11c build/gcc/obj/custom/main.o
                0x0000000088317e25                SMS_PDUMode_Read

.text.SMS_TextMode_Send
                0x0000000088317f40       0xf4
 .text.SMS_TextMode_Send
                0x0000000088317f40       0xf4 build/gcc/obj/custom/main.o
                0x0000000088317f41                SMS_TextMode_Send

.text.SMS_TextMode_Read
                0x0000000088318034      0x230
 .text.SMS_TextMode_Read
                0x0000000088318034      0x230 build/gcc/obj/custom/main.o
                0x0000000088318035                SMS_TextMode_Read

.text.controlvehicleDisabled
                0x0000000088318264       0x24
 .text.controlvehicleDisabled
                0x0000000088318264       0x24 build/gcc/obj/custom/main.o
                0x0000000088318265                controlvehicleDisabled

.text.calculateDistance
                0x0000000088318288      0x148
 .text.calculateDistance
                0x0000000088318288      0x148 build/gcc/obj/custom/main.o
                0x0000000088318289                calculateDistance

.text.Callback_GNSS_APGS_Hdlr
                0x00000000883183d0       0xc4
 .text.Callback_GNSS_APGS_Hdlr
                0x00000000883183d0       0xc4 build/gcc/obj/custom/main.o
                0x00000000883183d1                Callback_GNSS_APGS_Hdlr

.text.SMS_Callback_Timer
                0x0000000088318494       0xa0
 .text.SMS_Callback_Timer
                0x0000000088318494       0xa0 build/gcc/obj/custom/main.o

.text.Pin_Check_Callback_Timer
                0x0000000088318534      0x160
 .text.Pin_Check_Callback_Timer
                0x0000000088318534      0x160 build/gcc/obj/custom/main.o

.text.mqtt_recv
                0x0000000088318694      0x5bc
 .text.mqtt_recv
                0x0000000088318694      0x5bc build/gcc/obj/custom/main.o

.text.Mqtt_Callback_Timer
                0x0000000088318c50      0x704
 .text.Mqtt_Callback_Timer
                0x0000000088318c50      0x704 build/gcc/obj/custom/main.o

.text.Gnss_Callback_Timer
                0x0000000088319354      0x890
 .text.Gnss_Callback_Timer
                0x0000000088319354      0x890 build/gcc/obj/custom/main.o

.text.CallBack_UART_Hdlr
                0x0000000088319be4       0x88
 .text.CallBack_UART_Hdlr
                0x0000000088319be4       0x88 build/gcc/obj/custom/main.o

.text.Hdlr_RecvNewSMS
                0x0000000088319c6c      0x6a4
 .text.Hdlr_RecvNewSMS
                0x0000000088319c6c      0x6a4 build/gcc/obj/custom/main.o

.text.proc_main_task
                0x000000008831a310      0x720
 .text.proc_main_task
                0x000000008831a310      0x720 build/gcc/obj/custom/main.o
                0x000000008831a311                proc_main_task

.text.Dfota_Upgrade_States
                0x000000008831aa30       0xc8
 .text.Dfota_Upgrade_States
                0x000000008831aa30       0xc8 build/gcc/obj/custom/dfota/src/dfota_main.o

.text.Ql_DFOTA_StartUpgrade
                0x000000008831aaf8      0x104
 .text.Ql_DFOTA_StartUpgrade
                0x000000008831aaf8      0x104 build/gcc/obj/custom/dfota/src/dfota_main.o
                0x000000008831aaf9                Ql_DFOTA_StartUpgrade

.text.get_ignition_status
                0x000000008831abfc        0x8
 .text.get_ignition_status
                0x000000008831abfc        0x8 build/gcc/obj/custom/dfota/src/tracker_functions.o
                0x000000008831abfd                get_ignition_status

.text.get_last_known_location
                0x000000008831ac04        0x4
 .text.get_last_known_location
                0x000000008831ac04        0x4 build/gcc/obj/custom/dfota/src/tracker_functions.o
                0x000000008831ac05                get_last_known_location

.text.get_mileage
                0x000000008831ac08        0x4
 .text.get_mileage
                0x000000008831ac08        0x4 build/gcc/obj/custom/dfota/src/tracker_functions.o
                0x000000008831ac09                get_mileage

.text.reverse_geocode
                0x000000008831ac0c        0xc
 .text.reverse_geocode
                0x000000008831ac0c        0xc build/gcc/obj/custom/dfota/src/tracker_functions.o
                0x000000008831ac0d                reverse_geocode

.text.get_nearest_places
                0x000000008831ac18        0xc
 .text.get_nearest_places
                0x000000008831ac18        0xc build/gcc/obj/custom/dfota/src/tracker_functions.o
                0x000000008831ac19                get_nearest_places

.text.stop_current_trip
                0x000000008831ac24        0x4
 .text.stop_current_trip
                0x000000008831ac24        0x4 build/gcc/obj/custom/dfota/src/tracker_functions.o
                0x000000008831ac25                stop_current_trip

.text.get_trip_summary
                0x000000008831ac28        0x4
 .text.get_trip_summary
                0x000000008831ac28        0x4 build/gcc/obj/custom/dfota/src/tracker_functions.o
                0x000000008831ac29                get_trip_summary

.text.storage_clear_logs
                0x000000008831ac2c        0x4
 .text.storage_clear_logs
                0x000000008831ac2c        0x4 build/gcc/obj/custom/dfota/src/tracker_functions.o
                0x000000008831ac2d                storage_clear_logs

.text.my_strtok2
                0x000000008831ac30       0x64
 .text.my_strtok2
                0x000000008831ac30       0x64 build/gcc/obj/custom/dfota/src/tracker_functions.o
                0x000000008831ac31                my_strtok2

.text.get_device_imei
                0x000000008831ac94       0xcc
 .text.get_device_imei
                0x000000008831ac94       0xcc build/gcc/obj/custom/dfota/src/tracker_functions.o
                0x000000008831ac95                get_device_imei

.text.ATResponse_IMEI
                0x000000008831ad60       0x9c
 .text.ATResponse_IMEI
                0x000000008831ad60       0x9c build/gcc/obj/custom/dfota/src/tracker_functions.o

.text.get_external_power_status
                0x000000008831adfc       0xc4
 .text.get_external_power_status
                0x000000008831adfc       0xc4 build/gcc/obj/custom/dfota/src/tracker_functions.o
                0x000000008831adfd                get_external_power_status

.text.get_battery_percentage
                0x000000008831aec0       0xe4
 .text.get_battery_percentage
                0x000000008831aec0       0xe4 build/gcc/obj/custom/dfota/src/tracker_functions.o
                0x000000008831aec1                get_battery_percentage

.text.get_gsm_signal_strength
                0x000000008831afa4       0x70
 .text.get_gsm_signal_strength
                0x000000008831afa4       0x70 build/gcc/obj/custom/dfota/src/tracker_functions.o
                0x000000008831afa5                get_gsm_signal_strength

.text.nmea2decimal
                0x000000008831b018       0x98
 .text.nmea2decimal
                0x000000008831b018       0x98 build/gcc/obj/custom/dfota/src/gnss_parser.o

.text.parseGPRMC
                0x000000008831b0b0       0xa8
 .text.parseGPRMC
                0x000000008831b0b0       0xa8 build/gcc/obj/custom/dfota/src/gnss_parser.o
                0x000000008831b0b1                parseGPRMC

.text.FTP_Callback_OnDownload
                0x000000008831b158      0x2b0
 .text.FTP_Callback_OnDownload
                0x000000008831b158      0x2b0 build/gcc/obj/custom/dfota/src/dfota_ftp.o
                0x000000008831b159                FTP_Callback_OnDownload

.text.FTP_IsFtpServer
                0x000000008831b408       0x44
 .text.FTP_IsFtpServer
                0x000000008831b408       0x44 build/gcc/obj/custom/dfota/src/dfota_ftp.o
                0x000000008831b409                FTP_IsFtpServer

.text.FTP_DfotaMain
                0x000000008831b44c      0x5f0
 .text.FTP_DfotaMain
                0x000000008831b44c      0x5f0 build/gcc/obj/custom/dfota/src/dfota_ftp.o
                0x000000008831b44d                FTP_DfotaMain

.text.quectel_stricmp_bylength
                0x000000008831ba3c       0x68
 .text.quectel_stricmp_bylength
                0x000000008831ba3c       0x68 build/gcc/obj/custom/dfota/src/dfota_http_code.o
                0x000000008831ba3d                quectel_stricmp_bylength

.text.http_ip_check
                0x000000008831baa4       0x38
 .text.http_ip_check
                0x000000008831baa4       0x38 build/gcc/obj/custom/dfota/src/dfota_http_code.o
                0x000000008831baa5                http_ip_check

.text.find_linesymbol
                0x000000008831badc       0x50
 .text.find_linesymbol
                0x000000008831badc       0x50 build/gcc/obj/custom/dfota/src/dfota_http_code.o
                0x000000008831badd                find_linesymbol

.text.http_DecodeHeader
                0x000000008831bb2c      0x1d0
 .text.http_DecodeHeader
                0x000000008831bb2c      0x1d0 build/gcc/obj/custom/dfota/src/dfota_http_code.o
                0x000000008831bb2d                http_DecodeHeader

.text.http_DecodeURL
                0x000000008831bcfc      0x288
 .text.http_DecodeURL
                0x000000008831bcfc      0x288 build/gcc/obj/custom/dfota/src/dfota_http_code.o
                0x000000008831bcfd                http_DecodeURL

.text.HttpCallback_GPRS_Actived
                0x000000008831bf84        0x4
 .text.HttpCallback_GPRS_Actived
                0x000000008831bf84        0x4 build/gcc/obj/custom/dfota/src/dfota_http.o
                0x000000008831bf85                HttpCallback_GPRS_Actived

.text.HttpCallBack_GPRS_Deactived
                0x000000008831bf88        0x4
 .text.HttpCallBack_GPRS_Deactived
                0x000000008831bf88        0x4 build/gcc/obj/custom/dfota/src/dfota_http.o
                0x000000008831bf89                HttpCallBack_GPRS_Deactived

.text.Httpcallback_socket_connect
                0x000000008831bf8c        0x4
 .text.Httpcallback_socket_connect
                0x000000008831bf8c        0x4 build/gcc/obj/custom/dfota/src/dfota_http.o
                0x000000008831bf8d                Httpcallback_socket_connect

.text.Httpcallback_socket_close
                0x000000008831bf90        0x4
 .text.Httpcallback_socket_close
                0x000000008831bf90        0x4 build/gcc/obj/custom/dfota/src/dfota_http.o
                0x000000008831bf91                Httpcallback_socket_close

.text.Httpcallback_socket_accept
                0x000000008831bf94        0x4
 .text.Httpcallback_socket_accept
                0x000000008831bf94        0x4 build/gcc/obj/custom/dfota/src/dfota_http.o
                0x000000008831bf95                Httpcallback_socket_accept

.text.Httpcallback_socket_write
                0x000000008831bf98        0x4
 .text.Httpcallback_socket_write
                0x000000008831bf98        0x4 build/gcc/obj/custom/dfota/src/dfota_http.o
                0x000000008831bf99                Httpcallback_socket_write

.text.http_RecvHttpChunkedBody
                0x000000008831bf9c       0x34
 .text.http_RecvHttpChunkedBody
                0x000000008831bf9c       0x34 build/gcc/obj/custom/dfota/src/dfota_http.o
                0x000000008831bf9d                http_RecvHttpChunkedBody

.text.http_TimerCallback
                0x000000008831bfd0       0x5c
 .text.http_TimerCallback
                0x000000008831bfd0       0x5c build/gcc/obj/custom/dfota/src/dfota_http.o
                0x000000008831bfd1                http_TimerCallback

.text.http_RecvHttpBody
                0x000000008831c02c      0x278
 .text.http_RecvHttpBody
                0x000000008831c02c      0x278 build/gcc/obj/custom/dfota/src/dfota_http.o
                0x000000008831c02d                http_RecvHttpBody

.text.http_RecvHttpHead
                0x000000008831c2a4      0x1b4
 .text.http_RecvHttpHead
                0x000000008831c2a4      0x1b4 build/gcc/obj/custom/dfota/src/dfota_http.o
                0x000000008831c2a5                http_RecvHttpHead

.text.Httpcallback_socket_read
                0x000000008831c458       0xa0
 .text.Httpcallback_socket_read
                0x000000008831c458       0xa0 build/gcc/obj/custom/dfota/src/dfota_http.o
                0x000000008831c459                Httpcallback_socket_read

.text.http_initialize
                0x000000008831c4f8       0x9c
 .text.http_initialize
                0x000000008831c4f8       0x9c build/gcc/obj/custom/dfota/src/dfota_http.o
                0x000000008831c4f9                http_initialize

.text.http_SendHttpGetHead
                0x000000008831c594      0x300
 .text.http_SendHttpGetHead
                0x000000008831c594      0x300 build/gcc/obj/custom/dfota/src/dfota_http.o
                0x000000008831c595                http_SendHttpGetHead

.text.http_GetImagefilefromServer
                0x000000008831c894       0xe8
 .text.http_GetImagefilefromServer
                0x000000008831c894       0xe8 build/gcc/obj/custom/dfota/src/dfota_http.o
                0x000000008831c895                http_GetImagefilefromServer

.text.Callback_GetIpByHostName
                0x000000008831c97c       0x40
 .text.Callback_GetIpByHostName
                0x000000008831c97c       0x40 build/gcc/obj/custom/dfota/src/dfota_http.o
                0x000000008831c97d                Callback_GetIpByHostName

.text.HTTP_DfotaMain
                0x000000008831c9bc      0x26c
 .text.HTTP_DfotaMain
                0x000000008831c9bc      0x26c build/gcc/obj/custom/dfota/src/dfota_http.o
                0x000000008831c9bd                HTTP_DfotaMain

.text.HTTP_IsHttpServer
                0x000000008831cc28       0x44
 .text.HTTP_IsHttpServer
                0x000000008831cc28       0x44 build/gcc/obj/custom/dfota/src/dfota_http.o
                0x000000008831cc29                HTTP_IsHttpServer

.text.isspace   0x000000008831cc6c       0x2c
 .text.isspace  0x000000008831cc6c       0x2c build/gcc/obj/custom/dfota/src/json_parser.o
                0x000000008831cc6d                isspace

.text.extract_array
                0x000000008831cc98       0x88
 .text.extract_array
                0x000000008831cc98       0x88 build/gcc/obj/custom/dfota/src/json_parser.o
                0x000000008831cc99                extract_array

.text.extract_string
                0x000000008831cd20       0x84
 .text.extract_string
                0x000000008831cd20       0x84 build/gcc/obj/custom/dfota/src/json_parser.o
                0x000000008831cd21                extract_string

.text.extract_int
                0x000000008831cda4       0x68
 .text.extract_int
                0x000000008831cda4       0x68 build/gcc/obj/custom/dfota/src/json_parser.o
                0x000000008831cda5                extract_int

.text.cleanAlpha
                0x000000008831ce0c       0x3c
 .text.cleanAlpha
                0x000000008831ce0c       0x3c build/gcc/obj/custom/dfota/src/sms_command.o
                0x000000008831ce0d                cleanAlpha

.text.cleanString
                0x000000008831ce48       0x48
 .text.cleanString
                0x000000008831ce48       0x48 build/gcc/obj/custom/dfota/src/sms_command.o
                0x000000008831ce49                cleanString

.text.readAlphabetFromFlash
                0x000000008831ce90       0x6c
 .text.readAlphabetFromFlash
                0x000000008831ce90       0x6c build/gcc/obj/custom/dfota/src/sms_command.o
                0x000000008831ce91                readAlphabetFromFlash

.text.readFromFlashString
                0x000000008831cefc       0x6c
 .text.readFromFlashString
                0x000000008831cefc       0x6c build/gcc/obj/custom/dfota/src/sms_command.o
                0x000000008831cefd                readFromFlashString

.text.readFromFlash
                0x000000008831cf68       0x60
 .text.readFromFlash
                0x000000008831cf68       0x60 build/gcc/obj/custom/dfota/src/sms_command.o
                0x000000008831cf69                readFromFlash

.text.saveBytesToFlash
                0x000000008831cfc8       0xc8
 .text.saveBytesToFlash
                0x000000008831cfc8       0xc8 build/gcc/obj/custom/dfota/src/sms_command.o
                0x000000008831cfc9                saveBytesToFlash

.text.my_strtok
                0x000000008831d090       0x64
 .text.my_strtok
                0x000000008831d090       0x64 build/gcc/obj/custom/dfota/src/sms_command.o
                0x000000008831d091                my_strtok

.text.extract_key_value
                0x000000008831d0f4       0x6c
 .text.extract_key_value
                0x000000008831d0f4       0x6c build/gcc/obj/custom/dfota/src/sms_command.o
                0x000000008831d0f5                extract_key_value

.text.is_authorized
                0x000000008831d160      0x12c
 .text.is_authorized
                0x000000008831d160      0x12c build/gcc/obj/custom/dfota/src/sms_command.o

.text.sms_reply
                0x000000008831d28c       0x8c
 .text.sms_reply
                0x000000008831d28c       0x8c build/gcc/obj/custom/dfota/src/sms_command.o
                0x000000008831d28d                sms_reply

.text.handle_getreport_command
                0x000000008831d318      0x224
 .text.handle_getreport_command
                0x000000008831d318      0x224 build/gcc/obj/custom/dfota/src/sms_command.o

.text.handle_listuser_command
                0x000000008831d53c      0x184
 .text.handle_listuser_command
                0x000000008831d53c      0x184 build/gcc/obj/custom/dfota/src/sms_command.o

.text.handle_deluser_command
                0x000000008831d6c0      0x168
 .text.handle_deluser_command
                0x000000008831d6c0      0x168 build/gcc/obj/custom/dfota/src/sms_command.o

.text.handle_alarm_command
                0x000000008831d828       0xa4
 .text.handle_alarm_command
                0x000000008831d828       0xa4 build/gcc/obj/custom/dfota/src/sms_command.o

.text.handle_speed_command
                0x000000008831d8cc      0x130
 .text.handle_speed_command
                0x000000008831d8cc      0x130 build/gcc/obj/custom/dfota/src/sms_command.o

.text.handle_mainpower_command
                0x000000008831d9fc       0xc0
 .text.handle_mainpower_command
                0x000000008831d9fc       0xc0 build/gcc/obj/custom/dfota/src/sms_command.o

.text.handle_ignition_command
                0x000000008831dabc       0xd8
 .text.handle_ignition_command
                0x000000008831dabc       0xd8 build/gcc/obj/custom/dfota/src/sms_command.o

.text.handle_shock_command
                0x000000008831db94       0xac
 .text.handle_shock_command
                0x000000008831db94       0xac build/gcc/obj/custom/dfota/src/sms_command.o

.text.handle_heartbeat_command
                0x000000008831dc40       0xd0
 .text.handle_heartbeat_command
                0x000000008831dc40       0xd0 build/gcc/obj/custom/dfota/src/sms_command.o

.text.handle_setImei
                0x000000008831dd10      0x184
 .text.handle_setImei
                0x000000008831dd10      0x184 build/gcc/obj/custom/dfota/src/sms_command.o

.text.handle_www_command
                0x000000008831de94      0x5f4
 .text.handle_www_command
                0x000000008831de94      0x5f4 build/gcc/obj/custom/dfota/src/sms_command.o

.text.handle_sms_command
                0x000000008831e488      0x10c
 .text.handle_sms_command
                0x000000008831e488      0x10c build/gcc/obj/custom/dfota/src/sms_command.o

.text.handle_find_command
                0x000000008831e594      0x234
 .text.handle_find_command
                0x000000008831e594      0x234 build/gcc/obj/custom/dfota/src/sms_command.o

.text.handle_disable_command
                0x000000008831e7c8       0xe0
 .text.handle_disable_command
                0x000000008831e7c8       0xe0 build/gcc/obj/custom/dfota/src/sms_command.o

.text.handle_trip_command
                0x000000008831e8a8      0x124
 .text.handle_trip_command
                0x000000008831e8a8      0x124 build/gcc/obj/custom/dfota/src/sms_command.o

.text.handle_listen_command
                0x000000008831e9cc       0x88
 .text.handle_listen_command
                0x000000008831e9cc       0x88 build/gcc/obj/custom/dfota/src/sms_command.o

.text.handle_logger_command
                0x000000008831ea54       0x50
 .text.handle_logger_command
                0x000000008831ea54       0x50 build/gcc/obj/custom/dfota/src/sms_command.o

.text.sms_pump  0x000000008831eaa8     0x1108
 .text.sms_pump
                0x000000008831eaa8     0x1108 build/gcc/obj/custom/dfota/src/sms_command.o
                0x000000008831eaa9                sms_pump

.text.cos       0x000000008831fbb0       0xa8
 .text.cos      0x000000008831fbb0       0xa8 libs/gcc/fplibm.lib(s_cos.o)
                0x000000008831fbb1                cos

.text.sin       0x000000008831fc58       0xa8
 .text.sin      0x000000008831fc58       0xa8 libs/gcc/fplibm.lib(s_sin.o)
                0x000000008831fc59                sin

.text.atan2     0x000000008831fd00       0x10
 .text.atan2    0x000000008831fd00       0x10 libs/gcc/fplibm.lib(w_atan2.o)
                0x000000008831fd01                atan2

.text.sqrt      0x000000008831fd10       0x10
 .text.sqrt     0x000000008831fd10       0x10 libs/gcc/fplibm.lib(w_sqrt.o)
                0x000000008831fd11                sqrt

.text.__ieee754_atan2
                0x000000008831fd20      0x1e0
 .text.__ieee754_atan2
                0x000000008831fd20      0x1e0 libs/gcc/fplibm.lib(e_atan2.o)
                0x000000008831fd21                __ieee754_atan2

.text.__ieee754_rem_pio2
                0x000000008831ff00      0x488
 .text.__ieee754_rem_pio2
                0x000000008831ff00      0x488 libs/gcc/fplibm.lib(e_rem_pio2.o)
                0x000000008831ff01                __ieee754_rem_pio2

.text.__ieee754_sqrt
                0x0000000088320388      0x1a4
 .text.__ieee754_sqrt
                0x0000000088320388      0x1a4 libs/gcc/fplibm.lib(e_sqrt.o)
                0x0000000088320389                __ieee754_sqrt

.text.__kernel_cos
                0x0000000088320530      0x208
 .text.__kernel_cos
                0x0000000088320530      0x208 libs/gcc/fplibm.lib(k_cos.o)
                0x0000000088320531                __kernel_cos

.text.__kernel_rem_pio2
                0x0000000088320738      0x880
 .text.__kernel_rem_pio2
                0x0000000088320738      0x880 libs/gcc/fplibm.lib(k_rem_pio2.o)
                0x0000000088320739                __kernel_rem_pio2

.text.__kernel_sin
                0x0000000088320fb8      0x1a0
 .text.__kernel_sin
                0x0000000088320fb8      0x1a0 libs/gcc/fplibm.lib(k_sin.o)
                0x0000000088320fb9                __kernel_sin

.text.atan      0x0000000088321158      0x3d0
 .text.atan     0x0000000088321158      0x3d0 libs/gcc/fplibm.lib(s_atan.o)
                0x0000000088321159                atan

.text.floor     0x0000000088321528      0x150
 .text.floor    0x0000000088321528      0x150 libs/gcc/fplibm.lib(s_floor.o)
                0x0000000088321529                floor

.text.scalbn    0x0000000088321678      0x110
 .text.scalbn   0x0000000088321678      0x110 libs/gcc/fplibm.lib(s_scalbn.o)
                0x0000000088321679                scalbn

.text.Ql_ADC_Open
                0x0000000088321788       0x44
 .text.Ql_ADC_Open
                0x0000000088321788       0x44 libs/gcc/app_start.lib(adc.o)
                0x0000000088321789                Ql_ADC_Open

.text.Ql_ADC_Read
                0x00000000883217cc       0x44
 .text.Ql_ADC_Read
                0x00000000883217cc       0x44 libs/gcc/app_start.lib(adc.o)
                0x00000000883217cd                Ql_ADC_Read

.text.Ql_ADC_Close
                0x0000000088321810       0x40
 .text.Ql_ADC_Close
                0x0000000088321810       0x40 libs/gcc/app_start.lib(adc.o)
                0x0000000088321811                Ql_ADC_Close

.text.Ql_Timer_Register
                0x0000000088321850       0x48
 .text.Ql_Timer_Register
                0x0000000088321850       0x48 libs/gcc/app_start.lib(timer.o)
                0x0000000088321851                Ql_Timer_Register

.text.Ql_Timer_RegisterFast
                0x0000000088321898       0x48
 .text.Ql_Timer_RegisterFast
                0x0000000088321898       0x48 libs/gcc/app_start.lib(timer.o)
                0x0000000088321899                Ql_Timer_RegisterFast

.text.Ql_Timer_Start
                0x00000000883218e0       0x4c
 .text.Ql_Timer_Start
                0x00000000883218e0       0x4c libs/gcc/app_start.lib(timer.o)
                0x00000000883218e1                Ql_Timer_Start

.text.Ql_Timer_Stop
                0x000000008832192c       0x40
 .text.Ql_Timer_Stop
                0x000000008832192c       0x40 libs/gcc/app_start.lib(timer.o)
                0x000000008832192d                Ql_Timer_Stop

.text.Ql_GPRS_GetPDPCntxtState
                0x000000008832196c       0x44
 .text.Ql_GPRS_GetPDPCntxtState
                0x000000008832196c       0x44 libs/gcc/app_start.lib(gprs.o)
                0x000000008832196d                Ql_GPRS_GetPDPCntxtState

.text.Ql_GPRS_GetPDPContextId
                0x00000000883219b0       0x3c
 .text.Ql_GPRS_GetPDPContextId
                0x00000000883219b0       0x3c libs/gcc/app_start.lib(gprs.o)
                0x00000000883219b1                Ql_GPRS_GetPDPContextId

.text.Ql_GPRS_Config
                0x00000000883219ec       0x44
 .text.Ql_GPRS_Config
                0x00000000883219ec       0x44 libs/gcc/app_start.lib(gprs.o)
                0x00000000883219ed                Ql_GPRS_Config

.text.Ql_GPRS_Register
                0x0000000088321a30       0x48
 .text.Ql_GPRS_Register
                0x0000000088321a30       0x48 libs/gcc/app_start.lib(gprs.o)
                0x0000000088321a31                Ql_GPRS_Register

.text.Ql_GPRS_Activate
                0x0000000088321a78       0x44
 .text.Ql_GPRS_Activate
                0x0000000088321a78       0x44 libs/gcc/app_start.lib(gprs.o)
                0x0000000088321a79                Ql_GPRS_Activate

.text.Ql_GPRS_ActivateEx
                0x0000000088321abc       0x48
 .text.Ql_GPRS_ActivateEx
                0x0000000088321abc       0x48 libs/gcc/app_start.lib(gprs.o)
                0x0000000088321abd                Ql_GPRS_ActivateEx

.text.Ql_GPRS_Deactivate
                0x0000000088321b04       0x44
 .text.Ql_GPRS_Deactivate
                0x0000000088321b04       0x44 libs/gcc/app_start.lib(gprs.o)
                0x0000000088321b05                Ql_GPRS_Deactivate

.text.Ql_GPRS_DeactivateEx
                0x0000000088321b48       0x48
 .text.Ql_GPRS_DeactivateEx
                0x0000000088321b48       0x48 libs/gcc/app_start.lib(gprs.o)
                0x0000000088321b49                Ql_GPRS_DeactivateEx

.text.Ql_GPRS_GetLocalIPAddress
                0x0000000088321b90       0x44
 .text.Ql_GPRS_GetLocalIPAddress
                0x0000000088321b90       0x44 libs/gcc/app_start.lib(gprs.o)
                0x0000000088321b91                Ql_GPRS_GetLocalIPAddress

.text.Ql_GPRS_GetDNSAddress
                0x0000000088321bd4       0x48
 .text.Ql_GPRS_GetDNSAddress
                0x0000000088321bd4       0x48 libs/gcc/app_start.lib(gprs.o)
                0x0000000088321bd5                Ql_GPRS_GetDNSAddress

.text.Ql_GPRS_SetDNSAddress
                0x0000000088321c1c       0x48
 .text.Ql_GPRS_SetDNSAddress
                0x0000000088321c1c       0x48 libs/gcc/app_start.lib(gprs.o)
                0x0000000088321c1d                Ql_GPRS_SetDNSAddress

.text.Ql_AUD_PlayBuf
                0x0000000088321c64       0x70
 .text.Ql_AUD_PlayBuf
                0x0000000088321c64       0x70 libs/gcc/app_start.lib(ql_func.o)
                0x0000000088321c65                Ql_AUD_PlayBuf

.text.Ql_AUD_StopPlayBuf
                0x0000000088321cd4       0x38
 .text.Ql_AUD_StopPlayBuf
                0x0000000088321cd4       0x38 libs/gcc/app_start.lib(ql_func.o)
                0x0000000088321cd5                Ql_AUD_StopPlayBuf

.text.Ql_AUD_GetStatusPlaybuf
                0x0000000088321d0c       0x3c
 .text.Ql_AUD_GetStatusPlaybuf
                0x0000000088321d0c       0x3c libs/gcc/app_start.lib(ql_func.o)
                0x0000000088321d0d                Ql_AUD_GetStatusPlaybuf

.text.Ql_StartPlayAudioStream
                0x0000000088321d48       0x6c
 .text.Ql_StartPlayAudioStream
                0x0000000088321d48       0x6c libs/gcc/app_start.lib(ql_func.o)
                0x0000000088321d49                Ql_StartPlayAudioStream

.text.Ql_StopPlayAudioStream
                0x0000000088321db4       0x3c
 .text.Ql_StopPlayAudioStream
                0x0000000088321db4       0x3c libs/gcc/app_start.lib(ql_func.o)
                0x0000000088321db5                Ql_StopPlayAudioStream

.text.Ql_GetRelativeTime_Counter
                0x0000000088321df0       0x3c
 .text.Ql_GetRelativeTime_Counter
                0x0000000088321df0       0x3c libs/gcc/app_start.lib(ql_func.o)
                0x0000000088321df1                Ql_GetRelativeTime_Counter

.text.Ql_SecondToTicks
                0x0000000088321e2c       0x40
 .text.Ql_SecondToTicks
                0x0000000088321e2c       0x40 libs/gcc/app_start.lib(ql_func.o)
                0x0000000088321e2d                Ql_SecondToTicks

.text.Ql_MillisecondToTicks
                0x0000000088321e6c       0x40
 .text.Ql_MillisecondToTicks
                0x0000000088321e6c       0x40 libs/gcc/app_start.lib(ql_func.o)
                0x0000000088321e6d                Ql_MillisecondToTicks

.text.Ql_CalendarTime2LocalTime
                0x0000000088321eac       0x48
 .text.Ql_CalendarTime2LocalTime
                0x0000000088321eac       0x48 libs/gcc/app_start.lib(ql_func.o)
                0x0000000088321ead                Ql_CalendarTime2LocalTime

.text.Ql_osChangeTaskPriority
                0x0000000088321ef4       0x44
 .text.Ql_osChangeTaskPriority
                0x0000000088321ef4       0x44 libs/gcc/app_start.lib(ql_func.o)
                0x0000000088321ef5                Ql_osChangeTaskPriority

.text.Ql_OS_GetMessage
                0x0000000088321f38       0x40
 .text.Ql_OS_GetMessage
                0x0000000088321f38       0x40 libs/gcc/app_start.lib(taskMngt.o)
                0x0000000088321f39                Ql_OS_GetMessage

.text.Ql_OS_SendMessage
                0x0000000088321f78       0x4c
 .text.Ql_OS_SendMessage
                0x0000000088321f78       0x4c libs/gcc/app_start.lib(taskMngt.o)
                0x0000000088321f79                Ql_OS_SendMessage

.text.Ql_OS_CreateMutex
                0x0000000088321fc4       0x40
 .text.Ql_OS_CreateMutex
                0x0000000088321fc4       0x40 libs/gcc/app_start.lib(taskMngt.o)
                0x0000000088321fc5                Ql_OS_CreateMutex

.text.Ql_OS_TakeMutex
                0x0000000088322004       0x3c
 .text.Ql_OS_TakeMutex
                0x0000000088322004       0x3c libs/gcc/app_start.lib(taskMngt.o)
                0x0000000088322005                Ql_OS_TakeMutex

.text.Ql_OS_GiveMutex
                0x0000000088322040       0x3c
 .text.Ql_OS_GiveMutex
                0x0000000088322040       0x3c libs/gcc/app_start.lib(taskMngt.o)
                0x0000000088322041                Ql_OS_GiveMutex

.text.Ql_OS_CreateSemaphore
                0x000000008832207c       0x44
 .text.Ql_OS_CreateSemaphore
                0x000000008832207c       0x44 libs/gcc/app_start.lib(taskMngt.o)
                0x000000008832207d                Ql_OS_CreateSemaphore

.text.Ql_OS_TakeSemaphore
                0x00000000883220c0       0x48
 .text.Ql_OS_TakeSemaphore
                0x00000000883220c0       0x48 libs/gcc/app_start.lib(taskMngt.o)
                0x00000000883220c1                Ql_OS_TakeSemaphore

.text.Ql_OS_GiveSemaphore
                0x0000000088322108       0x3c
 .text.Ql_OS_GiveSemaphore
                0x0000000088322108       0x3c libs/gcc/app_start.lib(taskMngt.o)
                0x0000000088322109                Ql_OS_GiveSemaphore

.text.Ql_OS_CreateEvent
                0x0000000088322144       0x40
 .text.Ql_OS_CreateEvent
                0x0000000088322144       0x40 libs/gcc/app_start.lib(taskMngt.o)
                0x0000000088322145                Ql_OS_CreateEvent

.text.Ql_OS_WaitEvent
                0x0000000088322184       0x44
 .text.Ql_OS_WaitEvent
                0x0000000088322184       0x44 libs/gcc/app_start.lib(taskMngt.o)
                0x0000000088322185                Ql_OS_WaitEvent

.text.Ql_OS_SetEvent
                0x00000000883221c8       0x44
 .text.Ql_OS_SetEvent
                0x00000000883221c8       0x44 libs/gcc/app_start.lib(taskMngt.o)
                0x00000000883221c9                Ql_OS_SetEvent

.text.Ql_OS_GetActiveTaskId
                0x000000008832220c       0x3c
 .text.Ql_OS_GetActiveTaskId
                0x000000008832220c       0x3c libs/gcc/app_start.lib(taskMngt.o)
                0x000000008832220d                Ql_OS_GetActiveTaskId

.text.Ql_OS_SetLastErrorCode
                0x0000000088322248       0x40
 .text.Ql_OS_SetLastErrorCode
                0x0000000088322248       0x40 libs/gcc/app_start.lib(taskMngt.o)
                0x0000000088322249                Ql_OS_SetLastErrorCode

.text.Ql_OS_GetLastErrorCode
                0x0000000088322288       0x3c
 .text.Ql_OS_GetLastErrorCode
                0x0000000088322288       0x3c libs/gcc/app_start.lib(taskMngt.o)
                0x0000000088322289                Ql_OS_GetLastErrorCode

.text.Ql_OS_GetCurrentTaskPriority
                0x00000000883222c4       0x3c
 .text.Ql_OS_GetCurrentTaskPriority
                0x00000000883222c4       0x3c libs/gcc/app_start.lib(taskMngt.o)
                0x00000000883222c5                Ql_OS_GetCurrentTaskPriority

.text.Ql_OS_GetCurrenTaskLeftStackSize
                0x0000000088322300       0x3c
 .text.Ql_OS_GetCurrenTaskLeftStackSize
                0x0000000088322300       0x3c libs/gcc/app_start.lib(taskMngt.o)
                0x0000000088322301                Ql_OS_GetCurrenTaskLeftStackSize

.text.Ql_DFOTA_Init
                0x000000008832233c       0x40
 .text.Ql_DFOTA_Init
                0x000000008832233c       0x40 libs/gcc/app_start.lib(fota.o)
                0x000000008832233d                Ql_DFOTA_Init

.text.Ql_DFOTA_WriteData
                0x000000008832237c       0x44
 .text.Ql_DFOTA_WriteData
                0x000000008832237c       0x44 libs/gcc/app_start.lib(fota.o)
                0x000000008832237d                Ql_DFOTA_WriteData

.text.Ql_DFOTA_Finish
                0x00000000883223c0       0x3c
 .text.Ql_DFOTA_Finish
                0x00000000883223c0       0x3c libs/gcc/app_start.lib(fota.o)
                0x00000000883223c1                Ql_DFOTA_Finish

.text.Ql_DFOTA_ReadData
                0x00000000883223fc       0x48
 .text.Ql_DFOTA_ReadData
                0x00000000883223fc       0x48 libs/gcc/app_start.lib(fota.o)
                0x00000000883223fd                Ql_DFOTA_ReadData

.text.Ql_DFOTA_Update
                0x0000000088322444       0x3c
 .text.Ql_DFOTA_Update
                0x0000000088322444       0x3c libs/gcc/app_start.lib(fota.o)
                0x0000000088322445                Ql_DFOTA_Update

.text.memset    0x0000000088322480       0x70
 .text.memset   0x0000000088322480       0x70 libs/gcc/app_start.lib(ql_main.o)
                0x0000000088322481                memset

.text.memcpy    0x00000000883224f0      0x180
 .text.memcpy   0x00000000883224f0      0x180 libs/gcc/app_start.lib(ql_main.o)
                0x00000000883224f1                memcpy

.text.ql_InitVFunc
                0x0000000088322670       0x80
 .text.ql_InitVFunc
                0x0000000088322670       0x80 libs/gcc/app_start.lib(ql_main.o)
                0x0000000088322671                ql_InitVFunc

.text.ocpu_main
                0x00000000883226f0       0xe4
 .text.ocpu_main
                0x00000000883226f0       0xe4 libs/gcc/app_start.lib(ql_main.o)
                0x00000000883226f1                ocpu_main

.text.Ql_MEM_Alloc
                0x00000000883227d4       0x54
 .text.Ql_MEM_Alloc
                0x00000000883227d4       0x54 libs/gcc/app_start.lib(memory.o)
                0x00000000883227d5                Ql_MEM_Alloc

.text.Ql_MEM_Free
                0x0000000088322828       0x54
 .text.Ql_MEM_Free
                0x0000000088322828       0x54 libs/gcc/app_start.lib(memory.o)
                0x0000000088322829                Ql_MEM_Free

.text.set_errCode
                0x000000008832287c        0xc
 .text.set_errCode
                0x000000008832287c        0xc libs/gcc/app_start.lib(ril_main.o)

.text.get_errCode
                0x0000000088322888        0xc
 .text.get_errCode
                0x0000000088322888        0xc libs/gcc/app_start.lib(ril_main.o)

.text.get_ril_init_status
                0x0000000088322894        0xc
 .text.get_ril_init_status
                0x0000000088322894        0xc libs/gcc/app_start.lib(ril_main.o)
                0x0000000088322895                get_ril_init_status

.text.startWithSpecialChar
                0x00000000883228a0       0x1c
 .text.startWithSpecialChar
                0x00000000883228a0       0x1c libs/gcc/app_start.lib(ril_main.o)

.text.Ql_Mqtt_Recv_Register
                0x00000000883228bc       0x14
 .text.Ql_Mqtt_Recv_Register
                0x00000000883228bc       0x14 libs/gcc/app_start.lib(ril_main.o)
                0x00000000883228bd                Ql_Mqtt_Recv_Register

.text.Ql_RIL_WriteDataToCore
                0x00000000883228d0       0x18
 .text.Ql_RIL_WriteDataToCore
                0x00000000883228d0       0x18 libs/gcc/app_start.lib(ril_main.o)
                0x00000000883228d1                Ql_RIL_WriteDataToCore

.text.Ql_RIL_GetLine
                0x00000000883228e8       0xd0
 .text.Ql_RIL_GetLine
                0x00000000883228e8       0xd0 libs/gcc/app_start.lib(ril_main.o)

.text.isLimitedCmd
                0x00000000883229b8       0x3c
 .text.isLimitedCmd
                0x00000000883229b8       0x3c libs/gcc/app_start.lib(ril_main.o)

.text.Ql_RIL_SendATCmd
                0x00000000883229f4      0x1b0
 .text.Ql_RIL_SendATCmd
                0x00000000883229f4      0x1b0 libs/gcc/app_start.lib(ril_main.o)
                0x00000000883229f5                Ql_RIL_SendATCmd

.text.Ql_RIL_Initialize
                0x0000000088322ba4       0x90
 .text.Ql_RIL_Initialize
                0x0000000088322ba4       0x90 libs/gcc/app_start.lib(ril_main.o)
                0x0000000088322ba5                Ql_RIL_Initialize

.text.ril_StopATTimer
                0x0000000088322c34       0x20
 .text.ril_StopATTimer
                0x0000000088322c34       0x20 libs/gcc/app_start.lib(ril_main.o)

.text.Callback_OnATTimer
                0x0000000088322c54       0x30
 .text.Callback_OnATTimer
                0x0000000088322c54       0x30 libs/gcc/app_start.lib(ril_main.o)

.text.ril_StartATTimer
                0x0000000088322c84       0x28
 .text.ril_StartATTimer
                0x0000000088322c84       0x28 libs/gcc/app_start.lib(ril_main.o)

.text.proc_ril_task
                0x0000000088322cac      0x114
 .text.proc_ril_task
                0x0000000088322cac      0x114 libs/gcc/app_start.lib(ril_main.o)
                0x0000000088322cad                proc_ril_task

.text.Read_SerialPort
                0x0000000088322dc0       0x50
 .text.Read_SerialPort
                0x0000000088322dc0       0x50 libs/gcc/app_start.lib(ril_main.o)

.text.CallBack_SerialPort_Hdlr
                0x0000000088322e10      0x258
 .text.CallBack_SerialPort_Hdlr
                0x0000000088322e10      0x258 libs/gcc/app_start.lib(ril_main.o)

.text.proc_urc_task
                0x0000000088323068       0x38
 .text.proc_urc_task
                0x0000000088323068       0x38 libs/gcc/app_start.lib(ril_aux.o)
                0x0000000088323069                proc_urc_task

.text.Ql_GPIO_Init
                0x00000000883230a0       0x4c
 .text.Ql_GPIO_Init
                0x00000000883230a0       0x4c libs/gcc/app_start.lib(gpio.o)
                0x00000000883230a1                Ql_GPIO_Init

.text.Ql_GPIO_SetLevel
                0x00000000883230ec       0x44
 .text.Ql_GPIO_SetLevel
                0x00000000883230ec       0x44 libs/gcc/app_start.lib(gpio.o)
                0x00000000883230ed                Ql_GPIO_SetLevel

.text.Ql_GPIO_GetLevel
                0x0000000088323130       0x40
 .text.Ql_GPIO_GetLevel
                0x0000000088323130       0x40 libs/gcc/app_start.lib(gpio.o)
                0x0000000088323131                Ql_GPIO_GetLevel

.text.Ql_GPIO_SetDirection
                0x0000000088323170       0x44
 .text.Ql_GPIO_SetDirection
                0x0000000088323170       0x44 libs/gcc/app_start.lib(gpio.o)
                0x0000000088323171                Ql_GPIO_SetDirection

.text.Ql_GPIO_GetDirection
                0x00000000883231b4       0x40
 .text.Ql_GPIO_GetDirection
                0x00000000883231b4       0x40 libs/gcc/app_start.lib(gpio.o)
                0x00000000883231b5                Ql_GPIO_GetDirection

.text.Ql_GPIO_SetPullSelection
                0x00000000883231f4       0x44
 .text.Ql_GPIO_SetPullSelection
                0x00000000883231f4       0x44 libs/gcc/app_start.lib(gpio.o)
                0x00000000883231f5                Ql_GPIO_SetPullSelection

.text.Ql_GPIO_GetPullSelection
                0x0000000088323238       0x40
 .text.Ql_GPIO_GetPullSelection
                0x0000000088323238       0x40 libs/gcc/app_start.lib(gpio.o)
                0x0000000088323239                Ql_GPIO_GetPullSelection

.text.Ql_GPIO_Uninit
                0x0000000088323278       0x40
 .text.Ql_GPIO_Uninit
                0x0000000088323278       0x40 libs/gcc/app_start.lib(gpio.o)
                0x0000000088323279                Ql_GPIO_Uninit

.text._OCPU_InitUserMem
                0x00000000883232b8       0x48
 .text._OCPU_InitUserMem
                0x00000000883232b8       0x48 libs/gcc/app_start.lib(ocpi_init.o)
                0x00000000883232b9                _OCPU_InitUserMem

.text.Ql_FS_Open
                0x0000000088323300       0x44
 .text.Ql_FS_Open
                0x0000000088323300       0x44 libs/gcc/app_start.lib(fileSys.o)
                0x0000000088323301                Ql_FS_Open

.text.Ql_FS_OpenRAMFile
                0x0000000088323344       0x48
 .text.Ql_FS_OpenRAMFile
                0x0000000088323344       0x48 libs/gcc/app_start.lib(fileSys.o)
                0x0000000088323345                Ql_FS_OpenRAMFile

.text.Ql_FS_Read
                0x000000008832338c       0x4c
 .text.Ql_FS_Read
                0x000000008832338c       0x4c libs/gcc/app_start.lib(fileSys.o)
                0x000000008832338d                Ql_FS_Read

.text.Ql_FS_Write
                0x00000000883233d8       0x4c
 .text.Ql_FS_Write
                0x00000000883233d8       0x4c libs/gcc/app_start.lib(fileSys.o)
                0x00000000883233d9                Ql_FS_Write

.text.Ql_FS_Seek
                0x0000000088323424       0x48
 .text.Ql_FS_Seek
                0x0000000088323424       0x48 libs/gcc/app_start.lib(fileSys.o)
                0x0000000088323425                Ql_FS_Seek

.text.Ql_FS_GetFilePosition
                0x000000008832346c       0x40
 .text.Ql_FS_GetFilePosition
                0x000000008832346c       0x40 libs/gcc/app_start.lib(fileSys.o)
                0x000000008832346d                Ql_FS_GetFilePosition

.text.Ql_FS_Truncate
                0x00000000883234ac       0x40
 .text.Ql_FS_Truncate
                0x00000000883234ac       0x40 libs/gcc/app_start.lib(fileSys.o)
                0x00000000883234ad                Ql_FS_Truncate

.text.Ql_FS_Flush
                0x00000000883234ec       0x3c
 .text.Ql_FS_Flush
                0x00000000883234ec       0x3c libs/gcc/app_start.lib(fileSys.o)
                0x00000000883234ed                Ql_FS_Flush

.text.Ql_FS_Close
                0x0000000088323528       0x3c
 .text.Ql_FS_Close
                0x0000000088323528       0x3c libs/gcc/app_start.lib(fileSys.o)
                0x0000000088323529                Ql_FS_Close

.text.Ql_FS_GetSize
                0x0000000088323564       0x40
 .text.Ql_FS_GetSize
                0x0000000088323564       0x40 libs/gcc/app_start.lib(fileSys.o)
                0x0000000088323565                Ql_FS_GetSize

.text.Ql_FS_Delete
                0x00000000883235a4       0x40
 .text.Ql_FS_Delete
                0x00000000883235a4       0x40 libs/gcc/app_start.lib(fileSys.o)
                0x00000000883235a5                Ql_FS_Delete

.text.Ql_FS_Check
                0x00000000883235e4       0x40
 .text.Ql_FS_Check
                0x00000000883235e4       0x40 libs/gcc/app_start.lib(fileSys.o)
                0x00000000883235e5                Ql_FS_Check

.text.Ql_FS_Rename
                0x0000000088323624       0x44
 .text.Ql_FS_Rename
                0x0000000088323624       0x44 libs/gcc/app_start.lib(fileSys.o)
                0x0000000088323625                Ql_FS_Rename

.text.Ql_FS_CreateDir
                0x0000000088323668       0x40
 .text.Ql_FS_CreateDir
                0x0000000088323668       0x40 libs/gcc/app_start.lib(fileSys.o)
                0x0000000088323669                Ql_FS_CreateDir

.text.Ql_FS_DeleteDir
                0x00000000883236a8       0x40
 .text.Ql_FS_DeleteDir
                0x00000000883236a8       0x40 libs/gcc/app_start.lib(fileSys.o)
                0x00000000883236a9                Ql_FS_DeleteDir

.text.Ql_FS_CheckDir
                0x00000000883236e8       0x40
 .text.Ql_FS_CheckDir
                0x00000000883236e8       0x40 libs/gcc/app_start.lib(fileSys.o)
                0x00000000883236e9                Ql_FS_CheckDir

.text.Ql_FS_FindFirst
                0x0000000088323728       0x50
 .text.Ql_FS_FindFirst
                0x0000000088323728       0x50 libs/gcc/app_start.lib(fileSys.o)
                0x0000000088323729                Ql_FS_FindFirst

.text.Ql_FS_FindNext
                0x0000000088323778       0x50
 .text.Ql_FS_FindNext
                0x0000000088323778       0x50 libs/gcc/app_start.lib(fileSys.o)
                0x0000000088323779                Ql_FS_FindNext

.text.Ql_FS_FindClose
                0x00000000883237c8       0x3c
 .text.Ql_FS_FindClose
                0x00000000883237c8       0x3c libs/gcc/app_start.lib(fileSys.o)
                0x00000000883237c9                Ql_FS_FindClose

.text.Ql_FS_XDelete
                0x0000000088323804       0x44
 .text.Ql_FS_XDelete
                0x0000000088323804       0x44 libs/gcc/app_start.lib(fileSys.o)
                0x0000000088323805                Ql_FS_XDelete

.text.Ql_FS_XMove
                0x0000000088323848       0x48
 .text.Ql_FS_XMove
                0x0000000088323848       0x48 libs/gcc/app_start.lib(fileSys.o)
                0x0000000088323849                Ql_FS_XMove

.text.Ql_FS_GetFreeSpace
                0x0000000088323890       0x50
 .text.Ql_FS_GetFreeSpace
                0x0000000088323890       0x50 libs/gcc/app_start.lib(fileSys.o)
                0x0000000088323891                Ql_FS_GetFreeSpace

.text.Ql_FS_GetTotalSpace
                0x00000000883238e0       0x50
 .text.Ql_FS_GetTotalSpace
                0x00000000883238e0       0x50 libs/gcc/app_start.lib(fileSys.o)
                0x00000000883238e1                Ql_FS_GetTotalSpace

.text.Ql_FS_Format
                0x0000000088323930       0x44
 .text.Ql_FS_Format
                0x0000000088323930       0x44 libs/gcc/app_start.lib(fileSys.o)
                0x0000000088323931                Ql_FS_Format

.text.Ql_FS_Safe_Read
                0x0000000088323974       0x4c
 .text.Ql_FS_Safe_Read
                0x0000000088323974       0x4c libs/gcc/app_start.lib(fileSys.o)
                0x0000000088323975                Ql_FS_Safe_Read

.text.Ql_FS_Safe_Write
                0x00000000883239c0       0x4c
 .text.Ql_FS_Safe_Write
                0x00000000883239c0       0x4c libs/gcc/app_start.lib(fileSys.o)
                0x00000000883239c1                Ql_FS_Safe_Write

.text.Ql_PowerDown
                0x0000000088323a0c       0x40
 .text.Ql_PowerDown
                0x0000000088323a0c       0x40 libs/gcc/app_start.lib(power.o)
                0x0000000088323a0d                Ql_PowerDown

.text.Ql_LockPower
                0x0000000088323a4c       0x38
 .text.Ql_LockPower
                0x0000000088323a4c       0x38 libs/gcc/app_start.lib(power.o)
                0x0000000088323a4d                Ql_LockPower

.text.Ql_PwrKey_Register
                0x0000000088323a84       0x40
 .text.Ql_PwrKey_Register
                0x0000000088323a84       0x40 libs/gcc/app_start.lib(power.o)
                0x0000000088323a85                Ql_PwrKey_Register

.text.Ql_GetPowerSupply
                0x0000000088323ac4       0x48
 .text.Ql_GetPowerSupply
                0x0000000088323ac4       0x48 libs/gcc/app_start.lib(power.o)
                0x0000000088323ac5                Ql_GetPowerSupply

.text.Ql_GetPowerOnReason
                0x0000000088323b0c       0x3c
 .text.Ql_GetPowerOnReason
                0x0000000088323b0c       0x3c libs/gcc/app_start.lib(power.o)
                0x0000000088323b0d                Ql_GetPowerOnReason

.text.OCPU_GetSleepEnableState
                0x0000000088323b48        0x4
 .text.OCPU_GetSleepEnableState
                0x0000000088323b48        0x4 libs/gcc/app_start.lib(power.o)
                0x0000000088323b49                OCPU_GetSleepEnableState

.text.Ql_SleepEnable
                0x0000000088323b4c       0x3c
 .text.Ql_SleepEnable
                0x0000000088323b4c       0x3c libs/gcc/app_start.lib(power.o)
                0x0000000088323b4d                Ql_SleepEnable

.text.Ql_SleepDisable
                0x0000000088323b88       0x3c
 .text.Ql_SleepDisable
                0x0000000088323b88       0x3c libs/gcc/app_start.lib(power.o)
                0x0000000088323b89                Ql_SleepDisable

.text.Ql_SetSleepMode
                0x0000000088323bc4       0x44
 .text.Ql_SetSleepMode
                0x0000000088323bc4       0x44 libs/gcc/app_start.lib(power.o)
                0x0000000088323bc5                Ql_SetSleepMode

.text.EncodeAddress
                0x0000000088323c08      0x190
 .text.EncodeAddress
                0x0000000088323c08      0x190 libs/gcc/app_start.lib(lib_ril_sms.o)

.text.DecodeUserDataHeader
                0x0000000088323d98       0x60
 .text.DecodeUserDataHeader
                0x0000000088323d98       0x60 libs/gcc/app_start.lib(lib_ril_sms.o)

.text.ConvCharSetIRACharToAlphaDefaultExtend
                0x0000000088323df8       0x40
 .text.ConvCharSetIRACharToAlphaDefaultExtend
                0x0000000088323df8       0x40 libs/gcc/app_start.lib(lib_ril_sms.o)

.text.ConvCharSet88591CharToAlphaDefaultExtend
                0x0000000088323e38       0x40
 .text.ConvCharSet88591CharToAlphaDefaultExtend
                0x0000000088323e38       0x40 libs/gcc/app_start.lib(lib_ril_sms.o)

.text.LIB_SMS_IsValidHexStr
                0x0000000088323e78       0x44
 .text.LIB_SMS_IsValidHexStr
                0x0000000088323e78       0x44 libs/gcc/app_start.lib(lib_ril_sms.o)
                0x0000000088323e79                LIB_SMS_IsValidHexStr

.text.LIB_SMS_ConvHexOctToHexStr
                0x0000000088323ebc       0x80
 .text.LIB_SMS_ConvHexOctToHexStr
                0x0000000088323ebc       0x80 libs/gcc/app_start.lib(lib_ril_sms.o)
                0x0000000088323ebd                LIB_SMS_ConvHexOctToHexStr

.text.LIB_SMS_ConvHexStrToHexOct
                0x0000000088323f3c       0xc0
 .text.LIB_SMS_ConvHexStrToHexOct
                0x0000000088323f3c       0xc0 libs/gcc/app_start.lib(lib_ril_sms.o)
                0x0000000088323f3d                LIB_SMS_ConvHexStrToHexOct

.text.LIB_SMS_DecodeDCS
                0x0000000088323ffc       0xc0
 .text.LIB_SMS_DecodeDCS
                0x0000000088323ffc       0xc0 libs/gcc/app_start.lib(lib_ril_sms.o)
                0x0000000088323ffd                LIB_SMS_DecodeDCS

.text.LIB_SMS_ConvAlphaToCharSet
                0x00000000883240bc      0x370
 .text.LIB_SMS_ConvAlphaToCharSet
                0x00000000883240bc      0x370 libs/gcc/app_start.lib(lib_ril_sms.o)
                0x00000000883240bd                LIB_SMS_ConvAlphaToCharSet

.text.EncodeGSM7Bit
                0x000000008832442c       0xe8
 .text.EncodeGSM7Bit
                0x000000008832442c       0xe8 libs/gcc/app_start.lib(lib_ril_sms.o)

.text.LIB_SMS_EncodeSubmitPDU
                0x0000000088324514      0x438
 .text.LIB_SMS_EncodeSubmitPDU
                0x0000000088324514      0x438 libs/gcc/app_start.lib(lib_ril_sms.o)
                0x0000000088324515                LIB_SMS_EncodeSubmitPDU

.text.DecodeGSM7Bit
                0x000000008832494c       0xd0
 .text.DecodeGSM7Bit
                0x000000008832494c       0xd0 libs/gcc/app_start.lib(lib_ril_sms.o)

.text.DecordUserDataBody
                0x0000000088324a1c       0xf4
 .text.DecordUserDataBody
                0x0000000088324a1c       0xf4 libs/gcc/app_start.lib(lib_ril_sms.o)

.text.DecodeAddress
                0x0000000088324b10      0x170
 .text.DecodeAddress
                0x0000000088324b10      0x170 libs/gcc/app_start.lib(lib_ril_sms.o)

.text.LIB_SMS_ConvCharSetToAlpha
                0x0000000088324c80      0x540
 .text.LIB_SMS_ConvCharSetToAlpha
                0x0000000088324c80      0x540 libs/gcc/app_start.lib(lib_ril_sms.o)
                0x0000000088324c81                LIB_SMS_ConvCharSetToAlpha

.text.T.129     0x00000000883251c0       0xf8
 .text.T.129    0x00000000883251c0       0xf8 libs/gcc/app_start.lib(lib_ril_sms.o)

.text.LIB_SMS_DecodePDUStr
                0x00000000883252b8      0x394
 .text.LIB_SMS_DecodePDUStr
                0x00000000883252b8      0x394 libs/gcc/app_start.lib(lib_ril_sms.o)
                0x00000000883252b9                LIB_SMS_DecodePDUStr

.text.Ql_create_api_hash
                0x000000008832564c       0x1c
 .text.Ql_create_api_hash
                0x000000008832564c       0x1c libs/gcc/app_start.lib(stdlib_func.o)
                0x000000008832564d                Ql_create_api_hash

.text.Ql_ui64toa
                0x0000000088325668       0x6c
 .text.Ql_ui64toa
                0x0000000088325668       0x6c libs/gcc/app_start.lib(stdlib_func.o)
                0x0000000088325669                Ql_ui64toa

.text.Ql_itoa   0x00000000883256d4       0x6c
 .text.Ql_itoa  0x00000000883256d4       0x6c libs/gcc/app_start.lib(stdlib_func.o)
                0x00000000883256d5                Ql_itoa

.text.Ql_atof   0x0000000088325740       0x64
 .text.Ql_atof  0x0000000088325740       0x64 libs/gcc/app_start.lib(stdlib_func.o)
                0x0000000088325741                Ql_atof

.text.Ql_strcpy
                0x00000000883257a4       0x6c
 .text.Ql_strcpy
                0x00000000883257a4       0x6c libs/gcc/app_start.lib(stdlib_func.o)
                0x00000000883257a5                Ql_strcpy

.text.Ql_strncpy
                0x0000000088325810       0x5c
 .text.Ql_strncpy
                0x0000000088325810       0x5c libs/gcc/app_start.lib(stdlib_func.o)
                0x0000000088325811                Ql_strncpy

.text.Ql_strcat
                0x000000008832586c       0x58
 .text.Ql_strcat
                0x000000008832586c       0x58 libs/gcc/app_start.lib(stdlib_func.o)
                0x000000008832586d                Ql_strcat

.text.Ql_strncat
                0x00000000883258c4       0x5c
 .text.Ql_strncat
                0x00000000883258c4       0x5c libs/gcc/app_start.lib(stdlib_func.o)
                0x00000000883258c5                Ql_strncat

.text.Ql_strlen
                0x0000000088325920       0x54
 .text.Ql_strlen
                0x0000000088325920       0x54 libs/gcc/app_start.lib(stdlib_func.o)
                0x0000000088325921                Ql_strlen

.text.Ql_strcmp
                0x0000000088325974       0x44
 .text.Ql_strcmp
                0x0000000088325974       0x44 libs/gcc/app_start.lib(stdlib_func.o)
                0x0000000088325975                Ql_strcmp

.text.Ql_strncmp
                0x00000000883259b8       0x48
 .text.Ql_strncmp
                0x00000000883259b8       0x48 libs/gcc/app_start.lib(stdlib_func.o)
                0x00000000883259b9                Ql_strncmp

.text.Ql_memset
                0x0000000088325a00       0x60
 .text.Ql_memset
                0x0000000088325a00       0x60 libs/gcc/app_start.lib(stdlib_func.o)
                0x0000000088325a01                Ql_memset

.text.Ql_memcpy
                0x0000000088325a60       0x5c
 .text.Ql_memcpy
                0x0000000088325a60       0x5c libs/gcc/app_start.lib(stdlib_func.o)
                0x0000000088325a61                Ql_memcpy

.text.Ql_memcmp
                0x0000000088325abc       0x48
 .text.Ql_memcmp
                0x0000000088325abc       0x48 libs/gcc/app_start.lib(stdlib_func.o)
                0x0000000088325abd                Ql_memcmp

.text.Ql_memmove
                0x0000000088325b04       0x5c
 .text.Ql_memmove
                0x0000000088325b04       0x5c libs/gcc/app_start.lib(stdlib_func.o)
                0x0000000088325b05                Ql_memmove

.text.Ql_strstr
                0x0000000088325b60       0x58
 .text.Ql_strstr
                0x0000000088325b60       0x58 libs/gcc/app_start.lib(stdlib_func.o)
                0x0000000088325b61                Ql_strstr

.text.Ql_strchr
                0x0000000088325bb8       0x58
 .text.Ql_strchr
                0x0000000088325bb8       0x58 libs/gcc/app_start.lib(stdlib_func.o)
                0x0000000088325bb9                Ql_strchr

.text.Ql_toupper
                0x0000000088325c10        0x8
 .text.Ql_toupper
                0x0000000088325c10        0x8 libs/gcc/app_start.lib(stdlib_func.o)
                0x0000000088325c11                Ql_toupper

.text.Ql_tolower
                0x0000000088325c18        0x8
 .text.Ql_tolower
                0x0000000088325c18        0x8 libs/gcc/app_start.lib(stdlib_func.o)
                0x0000000088325c19                Ql_tolower

.text.Ql_isdigit
                0x0000000088325c20       0x14
 .text.Ql_isdigit
                0x0000000088325c20       0x14 libs/gcc/app_start.lib(stdlib_func.o)
                0x0000000088325c21                Ql_isdigit

.text.Ql_atoi   0x0000000088325c34       0x70
 .text.Ql_atoi  0x0000000088325c34       0x70 libs/gcc/app_start.lib(stdlib_func.o)
                0x0000000088325c35                Ql_atoi

.text.Ql_vsprintf
                0x0000000088325ca4       0x5c
 .text.Ql_vsprintf
                0x0000000088325ca4       0x5c libs/gcc/app_start.lib(stdlib_func.o)
                0x0000000088325ca5                Ql_vsprintf

.text.Ql_Sleep  0x0000000088325d00       0x54
 .text.Ql_Sleep
                0x0000000088325d00       0x54 libs/gcc/app_start.lib(system.o)
                0x0000000088325d01                Ql_Sleep

.text.Ql_Reset  0x0000000088325d54       0x54
 .text.Ql_Reset
                0x0000000088325d54       0x54 libs/gcc/app_start.lib(system.o)
                0x0000000088325d55                Ql_Reset

.text.Ql_GetUID
                0x0000000088325da8       0x44
 .text.Ql_GetUID
                0x0000000088325da8       0x44 libs/gcc/app_start.lib(system.o)
                0x0000000088325da9                Ql_GetUID

.text.Ql_GetMsSincePwrOn
                0x0000000088325dec       0x58
 .text.Ql_GetMsSincePwrOn
                0x0000000088325dec       0x58 libs/gcc/app_start.lib(system.o)
                0x0000000088325ded                Ql_GetMsSincePwrOn

.text.Ql_GetCoreVer
                0x0000000088325e44       0x48
 .text.Ql_GetCoreVer
                0x0000000088325e44       0x48 libs/gcc/app_start.lib(system.o)
                0x0000000088325e45                Ql_GetCoreVer

.text.Ql_GetSDKVer_Sub
                0x0000000088325e8c       0x44
 .text.Ql_GetSDKVer_Sub
                0x0000000088325e8c       0x44 libs/gcc/app_start.lib(system.o)
                0x0000000088325e8d                Ql_GetSDKVer_Sub

.text.Ql_GetSDKVer
                0x0000000088325ed0       0x44
 .text.Ql_GetSDKVer
                0x0000000088325ed0       0x44 libs/gcc/app_start.lib(system.o)
                0x0000000088325ed1                Ql_GetSDKVer

.text.Ql_UART_Register
                0x0000000088325f14       0x48
 .text.Ql_UART_Register
                0x0000000088325f14       0x48 libs/gcc/app_start.lib(uart.o)
                0x0000000088325f15                Ql_UART_Register

.text.Ql_UART_Open
                0x0000000088325f5c       0x48
 .text.Ql_UART_Open
                0x0000000088325f5c       0x48 libs/gcc/app_start.lib(uart.o)
                0x0000000088325f5d                Ql_UART_Open

.text.Ql_UART_OpenEx
                0x0000000088325fa4       0x44
 .text.Ql_UART_OpenEx
                0x0000000088325fa4       0x44 libs/gcc/app_start.lib(uart.o)
                0x0000000088325fa5                Ql_UART_OpenEx

.text.Ql_UART_RX_Enable
                0x0000000088325fe8       0x38
 .text.Ql_UART_RX_Enable
                0x0000000088325fe8       0x38 libs/gcc/app_start.lib(uart.o)
                0x0000000088325fe9                Ql_UART_RX_Enable

.text.Ql_UART_RX_Disable
                0x0000000088326020       0x3c
 .text.Ql_UART_RX_Disable
                0x0000000088326020       0x3c libs/gcc/app_start.lib(uart.o)
                0x0000000088326021                Ql_UART_RX_Disable

.text.Ql_UART_Write
                0x000000008832605c       0x48
 .text.Ql_UART_Write
                0x000000008832605c       0x48 libs/gcc/app_start.lib(uart.o)
                0x000000008832605d                Ql_UART_Write

.text.Ql_UART_Read
                0x00000000883260a4       0x48
 .text.Ql_UART_Read
                0x00000000883260a4       0x48 libs/gcc/app_start.lib(uart.o)
                0x00000000883260a5                Ql_UART_Read

.text.Ql_UART_SetDCBConfig
                0x00000000883260ec       0x44
 .text.Ql_UART_SetDCBConfig
                0x00000000883260ec       0x44 libs/gcc/app_start.lib(uart.o)
                0x00000000883260ed                Ql_UART_SetDCBConfig

.text.Ql_UART_GetDCBConfig
                0x0000000088326130       0x44
 .text.Ql_UART_GetDCBConfig
                0x0000000088326130       0x44 libs/gcc/app_start.lib(uart.o)
                0x0000000088326131                Ql_UART_GetDCBConfig

.text.Ql_UART_ClrRxBuffer
                0x0000000088326174       0x3c
 .text.Ql_UART_ClrRxBuffer
                0x0000000088326174       0x3c libs/gcc/app_start.lib(uart.o)
                0x0000000088326175                Ql_UART_ClrRxBuffer

.text.Ql_UART_ClrTxBuffer
                0x00000000883261b0       0x3c
 .text.Ql_UART_ClrTxBuffer
                0x00000000883261b0       0x3c libs/gcc/app_start.lib(uart.o)
                0x00000000883261b1                Ql_UART_ClrTxBuffer

.text.Ql_UART_GetOption
                0x00000000883261ec       0x48
 .text.Ql_UART_GetOption
                0x00000000883261ec       0x48 libs/gcc/app_start.lib(uart.o)
                0x00000000883261ed                Ql_UART_GetOption

.text.Ql_UART_SetOption
                0x0000000088326234       0x48
 .text.Ql_UART_SetOption
                0x0000000088326234       0x48 libs/gcc/app_start.lib(uart.o)
                0x0000000088326235                Ql_UART_SetOption

.text.Ql_UART_GetPinStatus
                0x000000008832627c       0x44
 .text.Ql_UART_GetPinStatus
                0x000000008832627c       0x44 libs/gcc/app_start.lib(uart.o)
                0x000000008832627d                Ql_UART_GetPinStatus

.text.Ql_UART_SetPinStatus
                0x00000000883262c0       0x4c
 .text.Ql_UART_SetPinStatus
                0x00000000883262c0       0x4c libs/gcc/app_start.lib(uart.o)
                0x00000000883262c1                Ql_UART_SetPinStatus

.text.Ql_UART_SendEscap
                0x000000008832630c       0x40
 .text.Ql_UART_SendEscap
                0x000000008832630c       0x40 libs/gcc/app_start.lib(uart.o)
                0x000000008832630d                Ql_UART_SendEscap

.text.Ql_UART_Close
                0x000000008832634c       0x3c
 .text.Ql_UART_Close
                0x000000008832634c       0x3c libs/gcc/app_start.lib(uart.o)
                0x000000008832634d                Ql_UART_Close

.text.Ql_UART_TxDoneRegister
                0x0000000088326388       0x3c
 .text.Ql_UART_TxDoneRegister
                0x0000000088326388       0x3c libs/gcc/app_start.lib(uart.o)
                0x0000000088326389                Ql_UART_TxDoneRegister

.text.OCPU_WTD_GetInitState
                0x00000000883263c4        0xc
 .text.OCPU_WTD_GetInitState
                0x00000000883263c4        0xc libs/gcc/app_start.lib(watchdog.o)
                0x00000000883263c5                OCPU_WTD_GetInitState

.text.OCPU_WTD_StartExtWatchdog_WithStackTimer
                0x00000000883263d0       0x30
 .text.OCPU_WTD_StartExtWatchdog_WithStackTimer
                0x00000000883263d0       0x30 libs/gcc/app_start.lib(watchdog.o)
                0x00000000883263d1                OCPU_WTD_StartExtWatchdog_WithStackTimer

.text.OCPU_WTD_StopExtWatchdog_WithStackTimer
                0x0000000088326400       0x28
 .text.OCPU_WTD_StopExtWatchdog_WithStackTimer
                0x0000000088326400       0x28 libs/gcc/app_start.lib(watchdog.o)
                0x0000000088326401                OCPU_WTD_StopExtWatchdog_WithStackTimer

.text.Ql_WTD_Feed
                0x0000000088326428       0x34
 .text.Ql_WTD_Feed
                0x0000000088326428       0x34 libs/gcc/app_start.lib(watchdog.o)
                0x0000000088326429                Ql_WTD_Feed

.text.Ql_WTD_Stop
                0x000000008832645c       0x54
 .text.Ql_WTD_Stop
                0x000000008832645c       0x54 libs/gcc/app_start.lib(watchdog.o)
                0x000000008832645d                Ql_WTD_Stop

.text.Ql_WTD_Start
                0x00000000883264b0       0x78
 .text.Ql_WTD_Start
                0x00000000883264b0       0x78 libs/gcc/app_start.lib(watchdog.o)
                0x00000000883264b1                Ql_WTD_Start

.text.Ql_WTD_Init
                0x0000000088326528       0xb0
 .text.Ql_WTD_Init
                0x0000000088326528       0xb0 libs/gcc/app_start.lib(watchdog.o)
                0x0000000088326529                Ql_WTD_Init

.text.OCPU_WTD_StopExtWatchdog_WithGPTimer
                0x00000000883265d8       0x10
 .text.OCPU_WTD_StopExtWatchdog_WithGPTimer
                0x00000000883265d8       0x10 libs/gcc/app_start.lib(watchdog.o)
                0x00000000883265d9                OCPU_WTD_StopExtWatchdog_WithGPTimer

.text.OCPU_WTD_StartExtWatchdog_WithGPTimer
                0x00000000883265e8       0x2c
 .text.OCPU_WTD_StartExtWatchdog_WithGPTimer
                0x00000000883265e8       0x2c libs/gcc/app_start.lib(watchdog.o)
                0x00000000883265e9                OCPU_WTD_StartExtWatchdog_WithGPTimer

.text.OCPU_WTD_ChangeGPIOLevel
                0x0000000088326614       0x2c
 .text.OCPU_WTD_ChangeGPIOLevel
                0x0000000088326614       0x2c libs/gcc/app_start.lib(watchdog.o)
                0x0000000088326615                OCPU_WTD_ChangeGPIOLevel

.text.Ql_WTD_Calback
                0x0000000088326640       0x74
 .text.Ql_WTD_Calback
                0x0000000088326640       0x74 libs/gcc/app_start.lib(watchdog.o)

.text.Ql_SetLocalTime
                0x00000000883266b4       0x40
 .text.Ql_SetLocalTime
                0x00000000883266b4       0x40 libs/gcc/app_start.lib(time.o)
                0x00000000883266b5                Ql_SetLocalTime

.text.Ql_GetLocalTime
                0x00000000883266f4       0x40
 .text.Ql_GetLocalTime
                0x00000000883266f4       0x40 libs/gcc/app_start.lib(time.o)
                0x00000000883266f5                Ql_GetLocalTime

.text.Ql_Mktime
                0x0000000088326734       0x48
 .text.Ql_Mktime
                0x0000000088326734       0x48 libs/gcc/app_start.lib(time.o)
                0x0000000088326735                Ql_Mktime

.text.Ql_MKTime2CalendarTime
                0x000000008832677c       0x4c
 .text.Ql_MKTime2CalendarTime
                0x000000008832677c       0x4c libs/gcc/app_start.lib(time.o)
                0x000000008832677d                Ql_MKTime2CalendarTime

.text.Ql_SOC_Register
                0x00000000883267c8       0x50
 .text.Ql_SOC_Register
                0x00000000883267c8       0x50 libs/gcc/app_start.lib(socket.o)
                0x00000000883267c9                Ql_SOC_Register

.text.Ql_SOC_Create
                0x0000000088326818       0x48
 .text.Ql_SOC_Create
                0x0000000088326818       0x48 libs/gcc/app_start.lib(socket.o)
                0x0000000088326819                Ql_SOC_Create

.text.Ql_SOC_CreateEx
                0x0000000088326860       0x68
 .text.Ql_SOC_CreateEx
                0x0000000088326860       0x68 libs/gcc/app_start.lib(socket.o)
                0x0000000088326861                Ql_SOC_CreateEx

.text.Ql_SOC_Close
                0x00000000883268c8       0x40
 .text.Ql_SOC_Close
                0x00000000883268c8       0x40 libs/gcc/app_start.lib(socket.o)
                0x00000000883268c9                Ql_SOC_Close

.text.Ql_SOC_Connect
                0x0000000088326908       0x50
 .text.Ql_SOC_Connect
                0x0000000088326908       0x50 libs/gcc/app_start.lib(socket.o)
                0x0000000088326909                Ql_SOC_Connect

.text.Ql_SOC_ConnectEx
                0x0000000088326958       0x58
 .text.Ql_SOC_ConnectEx
                0x0000000088326958       0x58 libs/gcc/app_start.lib(socket.o)
                0x0000000088326959                Ql_SOC_ConnectEx

.text.Ql_SOC_Send
                0x00000000883269b0       0x48
 .text.Ql_SOC_Send
                0x00000000883269b0       0x48 libs/gcc/app_start.lib(socket.o)
                0x00000000883269b1                Ql_SOC_Send

.text.Ql_SOC_Recv
                0x00000000883269f8       0x48
 .text.Ql_SOC_Recv
                0x00000000883269f8       0x48 libs/gcc/app_start.lib(socket.o)
                0x00000000883269f9                Ql_SOC_Recv

.text.Ql_SOC_GetAckNumber
                0x0000000088326a40       0x44
 .text.Ql_SOC_GetAckNumber
                0x0000000088326a40       0x44 libs/gcc/app_start.lib(socket.o)
                0x0000000088326a41                Ql_SOC_GetAckNumber

.text.Ql_SOC_SendTo
                0x0000000088326a84       0x58
 .text.Ql_SOC_SendTo
                0x0000000088326a84       0x58 libs/gcc/app_start.lib(socket.o)
                0x0000000088326a85                Ql_SOC_SendTo

.text.Ql_SOC_RecvFrom
                0x0000000088326adc       0x50
 .text.Ql_SOC_RecvFrom
                0x0000000088326adc       0x50 libs/gcc/app_start.lib(socket.o)
                0x0000000088326add                Ql_SOC_RecvFrom

.text.Ql_SOC_Bind
                0x0000000088326b2c       0x4c
 .text.Ql_SOC_Bind
                0x0000000088326b2c       0x4c libs/gcc/app_start.lib(socket.o)
                0x0000000088326b2d                Ql_SOC_Bind

.text.Ql_SOC_Listen
                0x0000000088326b78       0x44
 .text.Ql_SOC_Listen
                0x0000000088326b78       0x44 libs/gcc/app_start.lib(socket.o)
                0x0000000088326b79                Ql_SOC_Listen

.text.Ql_SOC_Accept
                0x0000000088326bbc       0x48
 .text.Ql_SOC_Accept
                0x0000000088326bbc       0x48 libs/gcc/app_start.lib(socket.o)
                0x0000000088326bbd                Ql_SOC_Accept

.text.Ql_IpHelper_GetIPByHostName
                0x0000000088326c04       0x50
 .text.Ql_IpHelper_GetIPByHostName
                0x0000000088326c04       0x50 libs/gcc/app_start.lib(socket.o)
                0x0000000088326c05                Ql_IpHelper_GetIPByHostName

.text.Ql_IpHelper_GetIPByHostNameEx
                0x0000000088326c54       0x54
 .text.Ql_IpHelper_GetIPByHostNameEx
                0x0000000088326c54       0x54 libs/gcc/app_start.lib(socket.o)
                0x0000000088326c55                Ql_IpHelper_GetIPByHostNameEx

.text.Ql_IpHelper_ConvertIpAddr
                0x0000000088326ca8       0x44
 .text.Ql_IpHelper_ConvertIpAddr
                0x0000000088326ca8       0x44 libs/gcc/app_start.lib(socket.o)
                0x0000000088326ca9                Ql_IpHelper_ConvertIpAddr

.text.Ql_SOC_SetOption
                0x0000000088326cec       0x48
 .text.Ql_SOC_SetOption
                0x0000000088326cec       0x48 libs/gcc/app_start.lib(socket.o)
                0x0000000088326ced                Ql_SOC_SetOption

.text.Ql_SOC_SSL_InjectCertification
                0x0000000088326d34       0x44
 .text.Ql_SOC_SSL_InjectCertification
                0x0000000088326d34       0x44 libs/gcc/app_start.lib(socket.o)
                0x0000000088326d35                Ql_SOC_SSL_InjectCertification

.rodata         0x0000000088326d78     0x6a38
 *(.rodata)
 .rodata        0x0000000088326d78       0x68 build/gcc/obj/ril/src/ril_http.o
 .rodata        0x0000000088326de0       0x68 build/gcc/obj/ril/src/ril_network.o
 .rodata        0x0000000088326e48       0x10 build/gcc/obj/ril/src/ril_location.o
 .rodata        0x0000000088326e58        0xc build/gcc/obj/ril/src/ril_ntp.o
 .rodata        0x0000000088326e64        0x8 build/gcc/obj/ril/src/ril_system.o
 .rodata        0x0000000088326e6c       0x1c build/gcc/obj/ril/src/Ril_dtmf.o
 .rodata        0x0000000088326e88       0x24 build/gcc/obj/ril/src/ril_sim.o
 .rodata        0x0000000088326eac        0xc build/gcc/obj/ril/src/ril_location2.o
 .rodata        0x0000000088326eb8       0x5c build/gcc/obj/ril/src/ril_gnss.o
 .rodata        0x0000000088326f14        0xc build/gcc/obj/ril/src/ril_ftp.o
 .rodata        0x0000000088326f20       0x50 build/gcc/obj/ril/src/ril_alarm.o
 .rodata        0x0000000088326f70       0x28 build/gcc/obj/custom/main.o
 .rodata        0x0000000088326f98        0xc build/gcc/obj/custom/dfota/src/tracker_functions.o
 .rodata        0x0000000088326fa4        0x4 build/gcc/obj/custom/dfota/src/sms_command.o
 .rodata        0x0000000088326fa8        0x4 libs/gcc/app_start.lib(ril_main.o)
 .rodata        0x0000000088326fac       0x24 libs/gcc/app_start.lib(system.o)
 .rodata        0x0000000088326fd0       0x10 C:\CSDTK4\/mips-elf-4.4.2/lib/gcc/mips-elf/4.4.2/libgcc.a(_thenan_sf.o)
                0x0000000088326fd0                __thenan_sf
 .rodata        0x0000000088326fe0       0x18 C:\CSDTK4\/mips-elf-4.4.2/lib/gcc/mips-elf/4.4.2/libgcc.a(_thenan_df.o)
                0x0000000088326fe0                __thenan_df
 .rodata        0x0000000088326ff8      0x100 C:\CSDTK4\/mips-elf-4.4.2/lib/gcc/mips-elf/4.4.2/libgcc.a(_clz.o)
                0x0000000088326ff8                __clz_tab
 *(.rodata.*)
 .rodata.SystemCfg
                0x00000000883270f8       0x3c build/gcc/obj/custom/config/custom_sys_cfg.o
                0x00000000883270f8                SystemCfg
 .rodata.wtdCfg
                0x0000000088327134        0x8 build/gcc/obj/custom/config/custom_sys_cfg.o
 .rodata.appEnableCfg
                0x000000008832713c        0x4 build/gcc/obj/custom/config/custom_sys_cfg.o
 .rodata.pwrkeyCfg
                0x0000000088327140        0x4 build/gcc/obj/custom/config/custom_sys_cfg.o
 .rodata.debugPortCfg
                0x0000000088327144        0x4 build/gcc/obj/custom/config/custom_sys_cfg.o
 .rodata.TaskConfig
                0x0000000088327148       0x50 build/gcc/obj/custom/config/sys_config.o
                0x0000000088327148                TaskConfig
 .rodata.GpioConfigTbl
                0x0000000088327198       0x10 build/gcc/obj/custom/config/sys_config.o
                0x0000000088327198                GpioConfigTbl
 .rodata.str1.4
                0x00000000883271a8      0x144 build/gcc/obj/ril/src/ril_audio.o
                                        0x150 (size before relaxing)
 .rodata.str1.4
                0x00000000883272ec       0x19 build/gcc/obj/ril/src/ril_http.o
                                         0x34 (size before relaxing)
 *fill*         0x0000000088327305        0x3 00
 .rodata.str1.4
                0x0000000088327308      0x1e8 build/gcc/obj/ril/src/ril_urc.o
                                        0x1f4 (size before relaxing)
 .rodata.m_SysURCHdlEntry
                0x00000000883274f0      0x498 build/gcc/obj/ril/src/ril_urc.o
 .rodata.m_AtURCHdlEntry
                0x0000000088327988      0x460 build/gcc/obj/ril/src/ril_urc.o
 .rodata.str1.4
                0x0000000088327de8       0x19 build/gcc/obj/ril/src/ril_atResponse.o
                                         0x34 (size before relaxing)
 *fill*         0x0000000088327e01        0x3 00
 .rodata.str1.4
                0x0000000088327e04      0x105 build/gcc/obj/ril/src/ril_network.o
                                        0x128 (size before relaxing)
 *fill*         0x0000000088327f09        0x3 00
 .rodata.str1.4
                0x0000000088327f0c       0xbf build/gcc/obj/ril/src/ril_location.o
                                         0xdc (size before relaxing)
 *fill*         0x0000000088327fcb        0x1 00
 .rodata.str1.4
                0x0000000088327fcc       0x12 build/gcc/obj/ril/src/ril_ntp.o
                                         0x14 (size before relaxing)
 *fill*         0x0000000088327fde        0x2 00
 .rodata.str1.4
                0x0000000088327fe0       0x27 build/gcc/obj/ril/src/ril_telephony.o
                                         0x48 (size before relaxing)
 *fill*         0x0000000088328007        0x1 00
 .rodata.str1.4
                0x0000000088328008       0xbe build/gcc/obj/ril/src/ril_sms.o
                                         0xec (size before relaxing)
 *fill*         0x00000000883280c6        0x2 00
 .rodata.str1.4
                0x00000000883280c8       0x27 build/gcc/obj/ril/src/ril_system.o
                                         0x4c (size before relaxing)
 *fill*         0x00000000883280ef        0x1 00
 .rodata.str1.4
                0x00000000883280f0       0x93 build/gcc/obj/ril/src/Ril_dtmf.o
                                         0xdc (size before relaxing)
 *fill*         0x0000000088328183        0x1 00
 .rodata.str1.4
                0x0000000088328184       0x98 build/gcc/obj/ril/src/ril_sim.o
                                         0xc0 (size before relaxing)
 .rodata.CSWTCH.23
                0x000000008832821c       0x24 build/gcc/obj/ril/src/ril_sim.o
 .rodata.str1.4
                0x0000000088328240       0xbf build/gcc/obj/ril/src/ril_location2.o
                                         0xe4 (size before relaxing)
 *fill*         0x00000000883282ff        0x1 00
 .rodata.str1.4
                0x0000000088328300      0x12b build/gcc/obj/ril/src/ril_gnss.o
                                        0x168 (size before relaxing)
 *fill*         0x000000008832842b        0x1 00
 .rodata.str1.4
                0x000000008832842c       0x58 build/gcc/obj/ril/src/ril_init.o
 .rodata.str1.4
                0x0000000088328484      0x287 build/gcc/obj/ril/src/ril_ftp.o
                                        0x2c0 (size before relaxing)
 *fill*         0x000000008832870b        0x1 00
 .rodata.str1.4
                0x000000008832870c       0x7a build/gcc/obj/ril/src/ril_alarm.o
                                         0x90 (size before relaxing)
 *fill*         0x0000000088328786        0x2 00
 .rodata.str1.4
                0x0000000088328788       0x15 build/gcc/obj/ril/src/ril_util.o
                                         0x20 (size before relaxing)
 *fill*         0x000000008832879d        0x3 00
 .rodata.str1.4
                0x00000000883287a0      0x141 build/gcc/obj/ril/src/ril_mqtt.o
                                        0x174 (size before relaxing)
 *fill*         0x00000000883288e1        0x3 00
 .rodata.str1.4
                0x00000000883288e4     0x1a6c build/gcc/obj/custom/main.o
                                       0x1a88 (size before relaxing)
 .rodata.__func__.5143
                0x000000008832a350       0x10 build/gcc/obj/custom/main.o
 .rodata.str1.4
                0x000000008832a360      0x1cd build/gcc/obj/custom/dfota/src/dfota_main.o
                                        0x1d0 (size before relaxing)
 *fill*         0x000000008832a52d        0x3 00
 .rodata.str1.4
                0x000000008832a530       0xb3 build/gcc/obj/custom/dfota/src/tracker_functions.o
                                         0xc4 (size before relaxing)
 *fill*         0x000000008832a5e3        0x1 00
 .rodata.str1.4
                0x000000008832a5e4       0x4d build/gcc/obj/custom/dfota/src/gnss_parser.o
                                         0x50 (size before relaxing)
 *fill*         0x000000008832a631        0x3 00
 .rodata.str1.4
                0x000000008832a634      0x697 build/gcc/obj/custom/dfota/src/dfota_ftp.o
                                        0x6a4 (size before relaxing)
 *fill*         0x000000008832accb        0x1 00
 .rodata.str1.4
                0x000000008832accc      0x117 build/gcc/obj/custom/dfota/src/dfota_http_code.o
                                        0x118 (size before relaxing)
 *fill*         0x000000008832ade3        0x1 00
 .rodata.str1.4
                0x000000008832ade4      0x49d build/gcc/obj/custom/dfota/src/dfota_http.o
                                        0x500 (size before relaxing)
 .rodata.str1.4
                0x0000000000000000        0x8 build/gcc/obj/custom/dfota/src/json_parser.o
 *fill*         0x000000008832b281        0x3 00
 .rodata.str1.4
                0x000000008832b284     0x12f0 build/gcc/obj/custom/dfota/src/sms_command.o
                                       0x1548 (size before relaxing)
 .rodata.npio2_hw
                0x000000008832c574       0x80 libs/gcc/fplibm.lib(e_rem_pio2.o)
 .rodata.two_over_pi
                0x000000008832c5f4      0x108 libs/gcc/fplibm.lib(e_rem_pio2.o)
 .rodata.init_jk
                0x000000008832c6fc       0x10 libs/gcc/fplibm.lib(k_rem_pio2.o)
 *fill*         0x000000008832c70c        0x4 00
 .rodata.PIo2   0x000000008832c710       0x40 libs/gcc/fplibm.lib(k_rem_pio2.o)
 .rodata.atanhi
                0x000000008832c750       0x20 libs/gcc/fplibm.lib(s_atan.o)
 .rodata.atanlo
                0x000000008832c770       0x20 libs/gcc/fplibm.lib(s_atan.o)
 .rodata.str1.4
                0x000000008832c790       0x25 libs/gcc/app_start.lib(adc.o)
                                         0x28 (size before relaxing)
 *fill*         0x000000008832c7b5        0x3 00
 .rodata.str1.4
                0x000000008832c7b8       0x4a libs/gcc/app_start.lib(timer.o)
                                         0x4c (size before relaxing)
 *fill*         0x000000008832c802        0x2 00
 .rodata.str1.4
                0x000000008832c804       0xde libs/gcc/app_start.lib(gprs.o)
                                         0xe0 (size before relaxing)
 *fill*         0x000000008832c8e2        0x2 00
 .rodata.str1.4
                0x000000008832c8e4       0xe8 libs/gcc/app_start.lib(ql_func.o)
 .rodata.str1.4
                0x000000008832c9cc      0x159 libs/gcc/app_start.lib(taskMngt.o)
                                        0x15c (size before relaxing)
 *fill*         0x000000008832cb25        0x3 00
 .rodata.str1.4
                0x000000008832cb28       0x58 libs/gcc/app_start.lib(fota.o)
 .rodata.str1.4
                0x000000008832cb80      0x11f libs/gcc/app_start.lib(ql_main.o)
                                        0x128 (size before relaxing)
 *fill*         0x000000008832cc9f        0x1 00
 .rodata.str1.4
                0x000000008832cca0       0x1c libs/gcc/app_start.lib(memory.o)
 .rodata.str1.4
                0x000000008832ccbc       0x35 libs/gcc/app_start.lib(ril_main.o)
                                         0x48 (size before relaxing)
 *fill*         0x000000008832ccf1        0x3 00
 .rodata.str1.4
                0x000000008832ccf4       0xaf libs/gcc/app_start.lib(gpio.o)
                                         0xb0 (size before relaxing)
 *fill*         0x000000008832cda3        0x1 00
 .rodata.str1.4
                0x000000008832cda4      0x195 libs/gcc/app_start.lib(fileSys.o)
                                        0x198 (size before relaxing)
 *fill*         0x000000008832cf39        0x3 00
 .rodata.str1.4
                0x000000008832cf3c       0x8c libs/gcc/app_start.lib(power.o)
 .rodata.sg_aAlphaDefaultExtendChars
                0x000000008832cfc8       0x14 libs/gcc/app_start.lib(lib_ril_sms.o)
 .rodata.sg_aAlphaDefaultExtendCharsUCS2Map
                0x000000008832cfdc       0x14 libs/gcc/app_start.lib(lib_ril_sms.o)
 .rodata.sg_aAlphaDefaultCharsUCS2Map
                0x000000008832cff0      0x100 libs/gcc/app_start.lib(lib_ril_sms.o)
 .rodata.sg_aAlphaDefaultCharsIRAMap
                0x000000008832d0f0       0x80 libs/gcc/app_start.lib(lib_ril_sms.o)
 .rodata.sg_aAlphaDefaultExtendCharsIRAMap
                0x000000008832d170        0xc libs/gcc/app_start.lib(lib_ril_sms.o)
 .rodata.sg_aAlphaDefaultChars88591Map
                0x000000008832d17c       0x80 libs/gcc/app_start.lib(lib_ril_sms.o)
 .rodata.sg_aAlphaDefaultExtendChars88591Map
                0x000000008832d1fc        0xc libs/gcc/app_start.lib(lib_ril_sms.o)
 .rodata.sg_aCharSetIRACharsGSMMap
                0x000000008832d208       0x80 libs/gcc/app_start.lib(lib_ril_sms.o)
 .rodata.sg_aCharSet88591CharsGSMMap
                0x000000008832d288      0x100 libs/gcc/app_start.lib(lib_ril_sms.o)
 .rodata.str1.4
                0x000000008832d388       0xc4 libs/gcc/app_start.lib(stdlib_func.o)
 .rodata.str1.4
                0x000000008832d44c       0x46 libs/gcc/app_start.lib(system.o)
                                         0x48 (size before relaxing)
 *fill*         0x000000008832d492        0x2 00
 .rodata.str1.4
                0x000000008832d494      0x13f libs/gcc/app_start.lib(uart.o)
                                        0x140 (size before relaxing)
 *fill*         0x000000008832d5d3        0x1 00
 .rodata.str1.4
                0x000000008832d5d4       0x26 libs/gcc/app_start.lib(watchdog.o)
                                         0x28 (size before relaxing)
 *fill*         0x000000008832d5fa        0x2 00
 .rodata.str1.4
                0x000000008832d5fc       0x43 libs/gcc/app_start.lib(time.o)
                                         0x44 (size before relaxing)
 *fill*         0x000000008832d63f        0x1 00
 .rodata.str1.4
                0x000000008832d640      0x168 libs/gcc/app_start.lib(socket.o)
 *(.rel.dyn)
 .rel.dyn       0x0000000000000000        0x0 build/gcc/obj/custom/dfota/src/dfota_http.o
                0x000000008832d7b0                . = ALIGN (0x10)
 *fill*         0x000000008832d7a8        0x8 00
                0x000000008832d7b0                _ROM_RW_DATA_START = .
                0x00000000823e7000                . = __RAM_START_ADDR

.app_RW_data    0x00000000823e7000      0x310 load address 0x000000008832d7b0
                0x00000000823e7000                _RAM_RW_DATA_START = .
 *(.data)
 .data          0x00000000823e7000        0x0 build/gcc/obj/custom/config/custom_sys_cfg.o
 .data          0x00000000823e7000        0x0 build/gcc/obj/custom/config/sys_config.o
 .data          0x00000000823e7000        0x0 build/gcc/obj/ril/src/ril_audio.o
 .data          0x00000000823e7000        0x0 build/gcc/obj/ril/src/ril_custom.o
 .data          0x00000000823e7000        0x0 build/gcc/obj/ril/src/ril_http.o
 .data          0x00000000823e7000        0x0 build/gcc/obj/ril/src/ril_urc.o
 .data          0x00000000823e7000        0x0 build/gcc/obj/ril/src/ril_atResponse.o
 .data          0x00000000823e7000        0x0 build/gcc/obj/ril/src/ril_network.o
 .data          0x00000000823e7000        0x0 build/gcc/obj/ril/src/ril_location.o
 .data          0x00000000823e7000        0x0 build/gcc/obj/ril/src/ril_ntp.o
 .data          0x00000000823e7000        0x0 build/gcc/obj/ril/src/ril_telephony.o
 .data          0x00000000823e7000        0x0 build/gcc/obj/ril/src/ril_sms.o
 .data          0x00000000823e7000        0x0 build/gcc/obj/ril/src/ril_system.o
 .data          0x00000000823e7000        0x0 build/gcc/obj/ril/src/Ril_dtmf.o
 .data          0x00000000823e7000        0x0 build/gcc/obj/ril/src/ril_sim.o
 .data          0x00000000823e7000        0x0 build/gcc/obj/ril/src/ril_location2.o
 .data          0x00000000823e7000        0x0 build/gcc/obj/ril/src/ril_gnss.o
 .data          0x00000000823e7000        0x0 build/gcc/obj/ril/src/ril_init.o
 .data          0x00000000823e7000        0x0 build/gcc/obj/ril/src/ril_ftp.o
 .data          0x00000000823e7000        0x0 build/gcc/obj/ril/src/ril_alarm.o
 .data          0x00000000823e7000        0x0 build/gcc/obj/ril/src/ril_util.o
 .data          0x00000000823e7000        0x0 build/gcc/obj/ril/src/ril_mqtt.o
 .data          0x00000000823e7000        0x0 build/gcc/obj/custom/main.o
 .data          0x00000000823e7000        0x0 build/gcc/obj/custom/dfota/src/dfota_main.o
 .data          0x00000000823e7000        0x0 build/gcc/obj/custom/dfota/src/tracker_functions.o
 .data          0x00000000823e7000        0x0 build/gcc/obj/custom/dfota/src/gnss_parser.o
 .data          0x00000000823e7000        0x0 build/gcc/obj/custom/dfota/src/dfota_ftp.o
 .data          0x00000000823e7000        0x0 build/gcc/obj/custom/dfota/src/dfota_http_code.o
 .data          0x00000000823e7000        0x0 build/gcc/obj/custom/dfota/src/dfota_http.o
 .data          0x00000000823e7000        0x0 build/gcc/obj/custom/dfota/src/json_parser.o
 .data          0x00000000823e7000        0x0 build/gcc/obj/custom/dfota/src/sms_command.o
 .data          0x00000000823e7000        0x0 libs/gcc/fplibm.lib(s_cos.o)
 .data          0x00000000823e7000        0x0 libs/gcc/fplibm.lib(s_sin.o)
 .data          0x00000000823e7000        0x0 libs/gcc/fplibm.lib(w_atan2.o)
 .data          0x00000000823e7000        0x0 libs/gcc/fplibm.lib(w_sqrt.o)
 .data          0x00000000823e7000        0x0 libs/gcc/fplibm.lib(e_atan2.o)
 .data          0x00000000823e7000        0x0 libs/gcc/fplibm.lib(e_rem_pio2.o)
 .data          0x00000000823e7000        0x0 libs/gcc/fplibm.lib(e_sqrt.o)
 .data          0x00000000823e7000        0x0 libs/gcc/fplibm.lib(k_cos.o)
 .data          0x00000000823e7000        0x0 libs/gcc/fplibm.lib(k_rem_pio2.o)
 .data          0x00000000823e7000        0x0 libs/gcc/fplibm.lib(k_sin.o)
 .data          0x00000000823e7000        0x0 libs/gcc/fplibm.lib(s_atan.o)
 .data          0x00000000823e7000        0x0 libs/gcc/fplibm.lib(s_floor.o)
 .data          0x00000000823e7000        0x0 libs/gcc/fplibm.lib(s_scalbn.o)
 .data          0x00000000823e7000        0x0 libs/gcc/app_start.lib(adc.o)
 .data          0x00000000823e7000        0x0 libs/gcc/app_start.lib(timer.o)
 .data          0x00000000823e7000        0x0 libs/gcc/app_start.lib(gprs.o)
 .data          0x00000000823e7000        0x0 libs/gcc/app_start.lib(ql_func.o)
 .data          0x00000000823e7000        0x0 libs/gcc/app_start.lib(taskMngt.o)
 .data          0x00000000823e7000        0x0 libs/gcc/app_start.lib(fota.o)
 .data          0x00000000823e7000        0x0 libs/gcc/app_start.lib(ql_main.o)
 .data          0x00000000823e7000        0x0 libs/gcc/app_start.lib(memory.o)
 .data          0x00000000823e7000        0x0 libs/gcc/app_start.lib(ril_main.o)
 .data          0x00000000823e7000        0x0 libs/gcc/app_start.lib(ril_aux.o)
 .data          0x00000000823e7000        0x0 libs/gcc/app_start.lib(gpio.o)
 .data          0x00000000823e7000        0x0 libs/gcc/app_start.lib(ocpi_init.o)
 .data          0x00000000823e7000        0x0 libs/gcc/app_start.lib(fileSys.o)
 .data          0x00000000823e7000        0x0 libs/gcc/app_start.lib(power.o)
 .data          0x00000000823e7000        0x0 libs/gcc/app_start.lib(lib_ril_sms.o)
 .data          0x00000000823e7000        0x0 libs/gcc/app_start.lib(stdlib_func.o)
 .data          0x00000000823e7000        0x0 libs/gcc/app_start.lib(system.o)
 .data          0x00000000823e7000        0x0 libs/gcc/app_start.lib(uart.o)
 .data          0x00000000823e7000        0x0 libs/gcc/app_start.lib(watchdog.o)
 .data          0x00000000823e7000        0x0 libs/gcc/app_start.lib(time.o)
 .data          0x00000000823e7000        0x0 libs/gcc/app_start.lib(socket.o)
 .data          0x00000000823e7000        0x0 C:\CSDTK4\/mips-elf-4.4.2/lib/gcc/mips-elf/4.4.2/libgcc.a(_fixunsdfsi.o)
 .data          0x00000000823e7000        0x0 C:\CSDTK4\/mips-elf-4.4.2/lib/gcc/mips-elf/4.4.2/libgcc.a(_addsub_sf.o)
 .data          0x00000000823e7000        0x0 C:\CSDTK4\/mips-elf-4.4.2/lib/gcc/mips-elf/4.4.2/libgcc.a(_mul_sf.o)
 .data          0x00000000823e7000        0x0 C:\CSDTK4\/mips-elf-4.4.2/lib/gcc/mips-elf/4.4.2/libgcc.a(_div_sf.o)
 .data          0x00000000823e7000        0x0 C:\CSDTK4\/mips-elf-4.4.2/lib/gcc/mips-elf/4.4.2/libgcc.a(_sf_to_df.o)
 .data          0x00000000823e7000        0x0 C:\CSDTK4\/mips-elf-4.4.2/lib/gcc/mips-elf/4.4.2/libgcc.a(_thenan_sf.o)
 .data          0x00000000823e7000        0x0 C:\CSDTK4\/mips-elf-4.4.2/lib/gcc/mips-elf/4.4.2/libgcc.a(_usi_to_sf.o)
 .data          0x00000000823e7000        0x0 C:\CSDTK4\/mips-elf-4.4.2/lib/gcc/mips-elf/4.4.2/libgcc.a(_addsub_df.o)
 .data          0x00000000823e7000        0x0 C:\CSDTK4\/mips-elf-4.4.2/lib/gcc/mips-elf/4.4.2/libgcc.a(_mul_df.o)
 .data          0x00000000823e7000        0x0 C:\CSDTK4\/mips-elf-4.4.2/lib/gcc/mips-elf/4.4.2/libgcc.a(_div_df.o)
 .data          0x00000000823e7000        0x0 C:\CSDTK4\/mips-elf-4.4.2/lib/gcc/mips-elf/4.4.2/libgcc.a(_eq_df.o)
 .data          0x00000000823e7000        0x0 C:\CSDTK4\/mips-elf-4.4.2/lib/gcc/mips-elf/4.4.2/libgcc.a(_gt_df.o)
 .data          0x00000000823e7000        0x0 C:\CSDTK4\/mips-elf-4.4.2/lib/gcc/mips-elf/4.4.2/libgcc.a(_ge_df.o)
 .data          0x00000000823e7000        0x0 C:\CSDTK4\/mips-elf-4.4.2/lib/gcc/mips-elf/4.4.2/libgcc.a(_si_to_df.o)
 .data          0x00000000823e7000        0x0 C:\CSDTK4\/mips-elf-4.4.2/lib/gcc/mips-elf/4.4.2/libgcc.a(_df_to_si.o)
 .data          0x00000000823e7000        0x0 C:\CSDTK4\/mips-elf-4.4.2/lib/gcc/mips-elf/4.4.2/libgcc.a(_make_df.o)
 .data          0x00000000823e7000        0x0 C:\CSDTK4\/mips-elf-4.4.2/lib/gcc/mips-elf/4.4.2/libgcc.a(_df_to_sf.o)
 .data          0x00000000823e7000        0x0 C:\CSDTK4\/mips-elf-4.4.2/lib/gcc/mips-elf/4.4.2/libgcc.a(_thenan_df.o)
 .data          0x00000000823e7000        0x0 C:\CSDTK4\/mips-elf-4.4.2/lib/gcc/mips-elf/4.4.2/libgcc.a(_lshrdi3.o)
 .data          0x00000000823e7000        0x0 C:\CSDTK4\/mips-elf-4.4.2/lib/gcc/mips-elf/4.4.2/libgcc.a(_ashldi3.o)
 .data          0x00000000823e7000        0x0 C:\CSDTK4\/mips-elf-4.4.2/lib/gcc/mips-elf/4.4.2/libgcc.a(_ucmpdi2.o)
 .data          0x00000000823e7000        0x0 C:\CSDTK4\/mips-elf-4.4.2/lib/gcc/mips-elf/4.4.2/libgcc.a(_clzsi2.o)
 .data          0x00000000823e7000        0x0 C:\CSDTK4\/mips-elf-4.4.2/lib/gcc/mips-elf/4.4.2/libgcc.a(_pack_sf.o)
 .data          0x00000000823e7000        0x0 C:\CSDTK4\/mips-elf-4.4.2/lib/gcc/mips-elf/4.4.2/libgcc.a(_unpack_sf.o)
 .data          0x00000000823e7000        0x0 C:\CSDTK4\/mips-elf-4.4.2/lib/gcc/mips-elf/4.4.2/libgcc.a(_make_sf.o)
 .data          0x00000000823e7000        0x0 C:\CSDTK4\/mips-elf-4.4.2/lib/gcc/mips-elf/4.4.2/libgcc.a(_pack_df.o)
 .data          0x00000000823e7000        0x0 C:\CSDTK4\/mips-elf-4.4.2/lib/gcc/mips-elf/4.4.2/libgcc.a(_unpack_df.o)
 .data          0x00000000823e7000        0x0 C:\CSDTK4\/mips-elf-4.4.2/lib/gcc/mips-elf/4.4.2/libgcc.a(_fpcmp_parts_df.o)
 .data          0x00000000823e7000        0x0 C:\CSDTK4\/mips-elf-4.4.2/lib/gcc/mips-elf/4.4.2/libgcc.a(_clz.o)
 *(.data.*)
 .data.mqtt_urc_param
                0x00000000823e7000       0x38 build/gcc/obj/ril/src/ril_urc.o
                0x00000000823e7000                mqtt_urc_param
 .data.g_InitCmds
                0x00000000823e7038       0x18 build/gcc/obj/ril/src/ril_init.o
                0x00000000823e7038                g_InitCmds
 .data.g_LimitedCmds
                0x00000000823e7050        0x8 build/gcc/obj/ril/src/ril_init.o
                0x00000000823e7050                g_LimitedCmds
 .data.DISC_flag
                0x00000000823e7058        0x1 build/gcc/obj/custom/main.o
                0x00000000823e7058                DISC_flag
 .data.CLOSE_flag
                0x00000000823e7059        0x1 build/gcc/obj/custom/main.o
                0x00000000823e7059                CLOSE_flag
 *fill*         0x00000000823e705a        0x2 00
 .data.username
                0x00000000823e705c        0xc build/gcc/obj/custom/main.o
                0x00000000823e705c                username
 .data.deviceTopic
                0x00000000823e7068       0x18 build/gcc/obj/custom/main.o
                0x00000000823e7068                deviceTopic
 .data.trackOnDemand
                0x00000000823e7080       0x10 build/gcc/obj/custom/main.o
                0x00000000823e7080                trackOnDemand
 .data.setGprsInterval
                0x00000000823e7090       0x14 build/gcc/obj/custom/main.o
                0x00000000823e7090                setGprsInterval
 .data.setAuthPhone
                0x00000000823e70a4       0x10 build/gcc/obj/custom/main.o
                0x00000000823e70a4                setAuthPhone
 .data.setOverSpeedLimit
                0x00000000823e70b4       0x14 build/gcc/obj/custom/main.o
                0x00000000823e70b4                setOverSpeedLimit
 .data.setMovementAlarmRadius
                0x00000000823e70c8       0x18 build/gcc/obj/custom/main.o
                0x00000000823e70c8                setMovementAlarmRadius
 .data.setGeofenceAlarm
                0x00000000823e70e0       0x14 build/gcc/obj/custom/main.o
                0x00000000823e70e0                setGeofenceAlarm
 .data.initialize
                0x00000000823e70f4        0xc build/gcc/obj/custom/main.o
                0x00000000823e70f4                initialize
 .data.setSleepMode
                0x00000000823e7100       0x10 build/gcc/obj/custom/main.o
                0x00000000823e7100                setSleepMode
 .data.outputControl
                0x00000000823e7110       0x10 build/gcc/obj/custom/main.o
                0x00000000823e7110                outputControl
 .data.armDisarm
                0x00000000823e7120        0xc build/gcc/obj/custom/main.o
                0x00000000823e7120                armDisarm
 .data.setGprsIntervalOnStop
                0x00000000823e712c       0x18 build/gcc/obj/custom/main.o
                0x00000000823e712c                setGprsIntervalOnStop
 .data.setTimeZone
                0x00000000823e7144       0x10 build/gcc/obj/custom/main.o
                0x00000000823e7144                setTimeZone
 .data.setInitOrdometer
                0x00000000823e7154       0x14 build/gcc/obj/custom/main.o
                0x00000000823e7154                setInitOrdometer
 .data.rebootDevice
                0x00000000823e7168       0x10 build/gcc/obj/custom/main.o
                0x00000000823e7168                rebootDevice
 .data.setHeartBeat
                0x00000000823e7178       0x10 build/gcc/obj/custom/main.o
                0x00000000823e7178                setHeartBeat
 .data.clearDataLogger
                0x00000000823e7188       0x14 build/gcc/obj/custom/main.o
                0x00000000823e7188                clearDataLogger
 .data.getFirmwareVersion
                0x00000000823e719c       0x14 build/gcc/obj/custom/main.o
                0x00000000823e719c                getFirmwareVersion
 .data.readGprsInterval
                0x00000000823e71b0       0x14 build/gcc/obj/custom/main.o
                0x00000000823e71b0                readGprsInterval
 .data.setAuthorizationTag
                0x00000000823e71c4       0x18 build/gcc/obj/custom/main.o
                0x00000000823e71c4                setAuthorizationTag
 .data.readAuthorizationTag
                0x00000000823e71dc       0x18 build/gcc/obj/custom/main.o
                0x00000000823e71dc                readAuthorizationTag
 .data.g_FOTA_State
                0x00000000823e71f4        0x4 build/gcc/obj/custom/dfota/src/dfota_main.o
                0x00000000823e71f4                g_FOTA_State
 .data.Fota_apn
                0x00000000823e71f8       0x64 build/gcc/obj/custom/dfota/src/dfota_main.o
                0x00000000823e71f8                Fota_apn
 .data.Fota_userid
                0x00000000823e725c       0x20 build/gcc/obj/custom/dfota/src/dfota_main.o
                0x00000000823e725c                Fota_userid
 .data.Fota_passwd
                0x00000000823e727c       0x20 build/gcc/obj/custom/dfota/src/dfota_main.o
                0x00000000823e727c                Fota_passwd
 .data.linesymbol.2416
                0x00000000823e729c        0x4 build/gcc/obj/custom/dfota/src/dfota_http_code.o
 .data.Httpcallback_gprs_func
                0x00000000823e72a0        0x8 build/gcc/obj/custom/dfota/src/dfota_http.o
                0x00000000823e72a0                Httpcallback_gprs_func
 .data.Httpcallback_SOC_func
                0x00000000823e72a8       0x14 build/gcc/obj/custom/dfota/src/dfota_http.o
                0x00000000823e72a8                Httpcallback_SOC_func
 .data.HttpGetHead
                0x00000000823e72bc       0x18 build/gcc/obj/custom/dfota/src/dfota_http.o
                0x00000000823e72bc                HttpGetHead
 .data.api_notsup
                0x00000000823e72d4       0x18 libs/gcc/app_start.lib(ql_func.o)
                0x00000000823e72d4                api_notsup
 .data.m_atTimer
                0x00000000823e72ec        0xc libs/gcc/app_start.lib(ril_main.o)
 .data.m_thisTaskId
                0x00000000823e72f8        0x4 libs/gcc/app_start.lib(ril_main.o)
 .data.g_ril_auxTaskId
                0x00000000823e72fc        0x4 libs/gcc/app_start.lib(ril_aux.o)
                0x00000000823e72fc                g_ril_auxTaskId
 .data.aaa      0x00000000823e7300        0x4 libs/gcc/app_start.lib(ocpi_init.o)
                0x00000000823e7300                aaa
 *(.sdata)
                0x00000000823e7310                . = ALIGN (0x10)
 *fill*         0x00000000823e7304        0xc 00
                0x00000000823e7310                _RAM_RW_DATA_END = .
                0x0000000000000310                _ROM_RW_DATA_SIZE = (_RAM_RW_DATA_END - _RAM_RW_DATA_START)
                0x000000008832dac0                _RAM_BSS_START = (_ROM_RW_DATA_START + _ROM_RW_DATA_SIZE)
                0x00000000823e7310                _ROM_END = _RAM_BSS_START
                0x000000000001dac0                _ROM_SIZE = (_ROM_END - _ROM_START)
                0x0000000000000001                ASSERT ((_ROM_SIZE < __MAX_ROM_SIZE), APP ROM OVERFLOW !!)

.backup         0x00000000823e7310        0x0
 *(.backup)
                0x00000000823e7310                . = ALIGN (0x4)

.app_ZI_data    0x00000000823e7310     0x5e80
                0x00000000823e7310                _RAM_BSS_START = .
 *(.bss)
 .bss           0x00000000823e7310        0x0 build/gcc/obj/custom/config/custom_sys_cfg.o
 .bss           0x00000000823e7310        0x0 build/gcc/obj/custom/config/sys_config.o
 .bss           0x00000000823e7310        0x0 build/gcc/obj/ril/src/ril_audio.o
 .bss           0x00000000823e7310        0x0 build/gcc/obj/ril/src/ril_custom.o
 .bss           0x00000000823e7310        0x0 build/gcc/obj/ril/src/ril_http.o
 .bss           0x00000000823e7310        0x0 build/gcc/obj/ril/src/ril_urc.o
 .bss           0x00000000823e7310        0x0 build/gcc/obj/ril/src/ril_atResponse.o
 .bss           0x00000000823e7310        0x0 build/gcc/obj/ril/src/ril_network.o
 .bss           0x00000000823e7310        0x0 build/gcc/obj/ril/src/ril_location.o
 .bss           0x00000000823e7310        0x0 build/gcc/obj/ril/src/ril_ntp.o
 .bss           0x00000000823e7310        0x0 build/gcc/obj/ril/src/ril_telephony.o
 .bss           0x00000000823e7310        0x0 build/gcc/obj/ril/src/ril_sms.o
 .bss           0x00000000823e7310        0x0 build/gcc/obj/ril/src/ril_system.o
 .bss           0x00000000823e7310        0x0 build/gcc/obj/ril/src/Ril_dtmf.o
 .bss           0x00000000823e7310        0x0 build/gcc/obj/ril/src/ril_sim.o
 .bss           0x00000000823e7310        0x0 build/gcc/obj/ril/src/ril_location2.o
 .bss           0x00000000823e7310        0x0 build/gcc/obj/ril/src/ril_gnss.o
 .bss           0x00000000823e7310        0x0 build/gcc/obj/ril/src/ril_init.o
 .bss           0x00000000823e7310        0x0 build/gcc/obj/ril/src/ril_ftp.o
 .bss           0x00000000823e7310        0x0 build/gcc/obj/ril/src/ril_alarm.o
 .bss           0x00000000823e7310        0x0 build/gcc/obj/ril/src/ril_util.o
 .bss           0x00000000823e7310        0x0 build/gcc/obj/ril/src/ril_mqtt.o
 .bss           0x00000000823e7310        0x0 build/gcc/obj/custom/main.o
 .bss           0x00000000823e7310        0x0 build/gcc/obj/custom/dfota/src/dfota_main.o
 .bss           0x00000000823e7310        0x0 build/gcc/obj/custom/dfota/src/tracker_functions.o
 .bss           0x00000000823e7310        0x0 build/gcc/obj/custom/dfota/src/gnss_parser.o
 .bss           0x00000000823e7310        0x0 build/gcc/obj/custom/dfota/src/dfota_ftp.o
 .bss           0x00000000823e7310        0x0 build/gcc/obj/custom/dfota/src/dfota_http_code.o
 .bss           0x00000000823e7310        0x0 build/gcc/obj/custom/dfota/src/dfota_http.o
 .bss           0x00000000823e7310        0x0 build/gcc/obj/custom/dfota/src/json_parser.o
 .bss           0x00000000823e7310        0x0 build/gcc/obj/custom/dfota/src/sms_command.o
 .bss           0x00000000823e7310        0x0 libs/gcc/fplibm.lib(s_cos.o)
 .bss           0x00000000823e7310        0x0 libs/gcc/fplibm.lib(s_sin.o)
 .bss           0x00000000823e7310        0x0 libs/gcc/fplibm.lib(w_atan2.o)
 .bss           0x00000000823e7310        0x0 libs/gcc/fplibm.lib(w_sqrt.o)
 .bss           0x00000000823e7310        0x0 libs/gcc/fplibm.lib(e_atan2.o)
 .bss           0x00000000823e7310        0x0 libs/gcc/fplibm.lib(e_rem_pio2.o)
 .bss           0x00000000823e7310        0x0 libs/gcc/fplibm.lib(e_sqrt.o)
 .bss           0x00000000823e7310        0x0 libs/gcc/fplibm.lib(k_cos.o)
 .bss           0x00000000823e7310        0x0 libs/gcc/fplibm.lib(k_rem_pio2.o)
 .bss           0x00000000823e7310        0x0 libs/gcc/fplibm.lib(k_sin.o)
 .bss           0x00000000823e7310        0x0 libs/gcc/fplibm.lib(s_atan.o)
 .bss           0x00000000823e7310        0x0 libs/gcc/fplibm.lib(s_floor.o)
 .bss           0x00000000823e7310        0x0 libs/gcc/fplibm.lib(s_scalbn.o)
 .bss           0x00000000823e7310        0x0 libs/gcc/app_start.lib(adc.o)
 .bss           0x00000000823e7310        0x0 libs/gcc/app_start.lib(timer.o)
 .bss           0x00000000823e7310        0x0 libs/gcc/app_start.lib(gprs.o)
 .bss           0x00000000823e7310        0x0 libs/gcc/app_start.lib(ql_func.o)
 .bss           0x00000000823e7310        0x0 libs/gcc/app_start.lib(taskMngt.o)
 .bss           0x00000000823e7310        0x0 libs/gcc/app_start.lib(fota.o)
 .bss           0x00000000823e7310        0x0 libs/gcc/app_start.lib(ql_main.o)
 .bss           0x00000000823e7310        0x0 libs/gcc/app_start.lib(memory.o)
 .bss           0x00000000823e7310        0x0 libs/gcc/app_start.lib(ril_main.o)
 .bss           0x00000000823e7310        0x0 libs/gcc/app_start.lib(ril_aux.o)
 .bss           0x00000000823e7310        0x0 libs/gcc/app_start.lib(gpio.o)
 .bss           0x00000000823e7310        0x0 libs/gcc/app_start.lib(ocpi_init.o)
 .bss           0x00000000823e7310        0x0 libs/gcc/app_start.lib(fileSys.o)
 .bss           0x00000000823e7310        0x0 libs/gcc/app_start.lib(power.o)
 .bss           0x00000000823e7310        0x0 libs/gcc/app_start.lib(lib_ril_sms.o)
 .bss           0x00000000823e7310        0x0 libs/gcc/app_start.lib(stdlib_func.o)
 .bss           0x00000000823e7310        0x0 libs/gcc/app_start.lib(system.o)
 .bss           0x00000000823e7310        0x0 libs/gcc/app_start.lib(uart.o)
 .bss           0x00000000823e7310        0x0 libs/gcc/app_start.lib(watchdog.o)
 .bss           0x00000000823e7310        0x0 libs/gcc/app_start.lib(time.o)
 .bss           0x00000000823e7310        0x0 libs/gcc/app_start.lib(socket.o)
 .bss           0x00000000823e7310        0x0 C:\CSDTK4\/mips-elf-4.4.2/lib/gcc/mips-elf/4.4.2/libgcc.a(_fixunsdfsi.o)
 .bss           0x00000000823e7310        0x0 C:\CSDTK4\/mips-elf-4.4.2/lib/gcc/mips-elf/4.4.2/libgcc.a(_addsub_sf.o)
 .bss           0x00000000823e7310        0x0 C:\CSDTK4\/mips-elf-4.4.2/lib/gcc/mips-elf/4.4.2/libgcc.a(_mul_sf.o)
 .bss           0x00000000823e7310        0x0 C:\CSDTK4\/mips-elf-4.4.2/lib/gcc/mips-elf/4.4.2/libgcc.a(_div_sf.o)
 .bss           0x00000000823e7310        0x0 C:\CSDTK4\/mips-elf-4.4.2/lib/gcc/mips-elf/4.4.2/libgcc.a(_sf_to_df.o)
 .bss           0x00000000823e7310        0x0 C:\CSDTK4\/mips-elf-4.4.2/lib/gcc/mips-elf/4.4.2/libgcc.a(_thenan_sf.o)
 .bss           0x00000000823e7310        0x0 C:\CSDTK4\/mips-elf-4.4.2/lib/gcc/mips-elf/4.4.2/libgcc.a(_usi_to_sf.o)
 .bss           0x00000000823e7310        0x0 C:\CSDTK4\/mips-elf-4.4.2/lib/gcc/mips-elf/4.4.2/libgcc.a(_addsub_df.o)
 .bss           0x00000000823e7310        0x0 C:\CSDTK4\/mips-elf-4.4.2/lib/gcc/mips-elf/4.4.2/libgcc.a(_mul_df.o)
 .bss           0x00000000823e7310        0x0 C:\CSDTK4\/mips-elf-4.4.2/lib/gcc/mips-elf/4.4.2/libgcc.a(_div_df.o)
 .bss           0x00000000823e7310        0x0 C:\CSDTK4\/mips-elf-4.4.2/lib/gcc/mips-elf/4.4.2/libgcc.a(_eq_df.o)
 .bss           0x00000000823e7310        0x0 C:\CSDTK4\/mips-elf-4.4.2/lib/gcc/mips-elf/4.4.2/libgcc.a(_gt_df.o)
 .bss           0x00000000823e7310        0x0 C:\CSDTK4\/mips-elf-4.4.2/lib/gcc/mips-elf/4.4.2/libgcc.a(_ge_df.o)
 .bss           0x00000000823e7310        0x0 C:\CSDTK4\/mips-elf-4.4.2/lib/gcc/mips-elf/4.4.2/libgcc.a(_si_to_df.o)
 .bss           0x00000000823e7310        0x0 C:\CSDTK4\/mips-elf-4.4.2/lib/gcc/mips-elf/4.4.2/libgcc.a(_df_to_si.o)
 .bss           0x00000000823e7310        0x0 C:\CSDTK4\/mips-elf-4.4.2/lib/gcc/mips-elf/4.4.2/libgcc.a(_make_df.o)
 .bss           0x00000000823e7310        0x0 C:\CSDTK4\/mips-elf-4.4.2/lib/gcc/mips-elf/4.4.2/libgcc.a(_df_to_sf.o)
 .bss           0x00000000823e7310        0x0 C:\CSDTK4\/mips-elf-4.4.2/lib/gcc/mips-elf/4.4.2/libgcc.a(_thenan_df.o)
 .bss           0x00000000823e7310        0x0 C:\CSDTK4\/mips-elf-4.4.2/lib/gcc/mips-elf/4.4.2/libgcc.a(_lshrdi3.o)
 .bss           0x00000000823e7310        0x0 C:\CSDTK4\/mips-elf-4.4.2/lib/gcc/mips-elf/4.4.2/libgcc.a(_ashldi3.o)
 .bss           0x00000000823e7310        0x0 C:\CSDTK4\/mips-elf-4.4.2/lib/gcc/mips-elf/4.4.2/libgcc.a(_ucmpdi2.o)
 .bss           0x00000000823e7310        0x0 C:\CSDTK4\/mips-elf-4.4.2/lib/gcc/mips-elf/4.4.2/libgcc.a(_clzsi2.o)
 .bss           0x00000000823e7310        0x0 C:\CSDTK4\/mips-elf-4.4.2/lib/gcc/mips-elf/4.4.2/libgcc.a(_pack_sf.o)
 .bss           0x00000000823e7310        0x0 C:\CSDTK4\/mips-elf-4.4.2/lib/gcc/mips-elf/4.4.2/libgcc.a(_unpack_sf.o)
 .bss           0x00000000823e7310        0x0 C:\CSDTK4\/mips-elf-4.4.2/lib/gcc/mips-elf/4.4.2/libgcc.a(_make_sf.o)
 .bss           0x00000000823e7310        0x0 C:\CSDTK4\/mips-elf-4.4.2/lib/gcc/mips-elf/4.4.2/libgcc.a(_pack_df.o)
 .bss           0x00000000823e7310        0x0 C:\CSDTK4\/mips-elf-4.4.2/lib/gcc/mips-elf/4.4.2/libgcc.a(_unpack_df.o)
 .bss           0x00000000823e7310        0x0 C:\CSDTK4\/mips-elf-4.4.2/lib/gcc/mips-elf/4.4.2/libgcc.a(_fpcmp_parts_df.o)
 .bss           0x00000000823e7310        0x0 C:\CSDTK4\/mips-elf-4.4.2/lib/gcc/mips-elf/4.4.2/libgcc.a(_clz.o)
 *(.sbss)
 *(.bss.*)
 .bss.cb_aud_play
                0x00000000823e7310        0x4 build/gcc/obj/ril/src/ril_audio.o
                0x00000000823e7310                cb_aud_play
 .bss.cb_rcvCoreData
                0x00000000823e7314        0x4 build/gcc/obj/ril/src/ril_custom.o
                0x00000000823e7314                cb_rcvCoreData
 .bss.http_url_addr
                0x00000000823e7318        0x4 build/gcc/obj/ril/src/ril_http.o
                0x00000000823e7318                http_url_addr
 .bss.http_url_addr_len
                0x00000000823e731c        0x2 build/gcc/obj/ril/src/ril_http.o
                0x00000000823e731c                http_url_addr_len
 *fill*         0x00000000823e731e        0x2 00
 .bss.http_post_msg
                0x00000000823e7320        0x4 build/gcc/obj/ril/src/ril_http.o
                0x00000000823e7320                http_post_msg
 .bss.http_post_msg_len
                0x00000000823e7324        0x2 build/gcc/obj/ril/src/ril_http.o
                0x00000000823e7324                http_post_msg_len
 *fill*         0x00000000823e7326        0x2 00
 .bss.callback_http_dwnld
                0x00000000823e7328        0x4 build/gcc/obj/ril/src/ril_http.o
                0x00000000823e7328                callback_http_dwnld
 .bss.m_httpAction
                0x00000000823e732c        0x4 build/gcc/obj/ril/src/ril_http.o
 .bss.FtpPut_IND_CB
                0x00000000823e7330        0x4 build/gcc/obj/ril/src/ril_urc.o
                0x00000000823e7330                FtpPut_IND_CB
 .bss.FtpGet_IND_CB
                0x00000000823e7334        0x4 build/gcc/obj/ril/src/ril_urc.o
                0x00000000823e7334                FtpGet_IND_CB
 .bss.m_iErrCode
                0x00000000823e7338        0x4 build/gcc/obj/ril/src/ril_atResponse.o
 .bss.callback_loc
                0x00000000823e733c        0x4 build/gcc/obj/ril/src/ril_location.o
 .bss.callback_NTPCMD
                0x00000000823e7340        0x4 build/gcc/obj/ril/src/ril_ntp.o
 .bss.s_bSMSReadContentFlag.2476
                0x00000000823e7344        0x1 build/gcc/obj/ril/src/ril_sms.o
 *fill*         0x00000000823e7345        0x3 00
 .bss.callback_WDTMF
                0x00000000823e7348        0x4 build/gcc/obj/ril/src/Ril_dtmf.o
 .bss.callback_ToneDet
                0x00000000823e734c        0x4 build/gcc/obj/ril/src/Ril_dtmf.o
 .bss.g_low_thresholdPtr
                0x00000000823e7350        0x4 build/gcc/obj/ril/src/Ril_dtmf.o
 .bss.g_high_thresholdPtr
                0x00000000823e7354        0x4 build/gcc/obj/ril/src/Ril_dtmf.o
 .bss.update_time_flag
                0x00000000823e7358        0x1 build/gcc/obj/ril/src/ril_location2.o
                0x00000000823e7358                update_time_flag
 *fill*         0x00000000823e7359        0x3 00
 .bss.callback_qlbsloc
                0x00000000823e735c        0x4 build/gcc/obj/ril/src/ril_location2.o
 .bss.callback_GNSSAGPS
                0x00000000823e7360        0x4 build/gcc/obj/ril/src/ril_gnss.o
 .bss.callback_GNSSCMD
                0x00000000823e7364        0x4 build/gcc/obj/ril/src/ril_gnss.o
 .bss.neighCount
                0x00000000823e7368        0x4 build/gcc/obj/custom/main.o
                0x00000000823e7368                neighCount
 .bss.remainLen
                0x00000000823e736c        0x2 build/gcc/obj/custom/main.o
                0x00000000823e736c                remainLen
 *fill*         0x00000000823e736e        0x2 00
 .bss.mqtt_urc_param_ptr
                0x00000000823e7370        0x4 build/gcc/obj/custom/main.o
                0x00000000823e7370                mqtt_urc_param_ptr
 .bss.connect_id
                0x00000000823e7374        0x4 build/gcc/obj/custom/main.o
                0x00000000823e7374                connect_id
 .bss.pub_message_id
                0x00000000823e7378        0x4 build/gcc/obj/custom/main.o
                0x00000000823e7378                pub_message_id
 .bss.sub_message_id
                0x00000000823e737c        0x4 build/gcc/obj/custom/main.o
                0x00000000823e737c                sub_message_id
 .bss.mqtt_auth
                0x00000000823e7380        0x4 build/gcc/obj/custom/main.o
                0x00000000823e7380                mqtt_auth
 .bss.isDeviceData
                0x00000000823e7384        0x2 build/gcc/obj/custom/main.o
                0x00000000823e7384                isDeviceData
 .bss.isDeviceAlarm
                0x00000000823e7386        0x2 build/gcc/obj/custom/main.o
                0x00000000823e7386                isDeviceAlarm
 .bss.iscommandData
                0x00000000823e7388        0x2 build/gcc/obj/custom/main.o
                0x00000000823e7388                iscommandData
 .bss.isNewSmsReceived
                0x00000000823e738a        0x2 build/gcc/obj/custom/main.o
                0x00000000823e738a                isNewSmsReceived
 .bss.countPublishFailure
                0x00000000823e738c        0x2 build/gcc/obj/custom/main.o
                0x00000000823e738c                countPublishFailure
 .bss.countMqttResponseWaitTime
                0x00000000823e738e        0x2 build/gcc/obj/custom/main.o
                0x00000000823e738e                countMqttResponseWaitTime
 .bss.isConnectionOpen
                0x00000000823e7390        0x1 build/gcc/obj/custom/main.o
                0x00000000823e7390                isConnectionOpen
 .bss.m_gnss_state
                0x00000000823e7391        0x1 build/gcc/obj/custom/main.o
 .bss.m_mqtt_state
                0x00000000823e7392        0x1 build/gcc/obj/custom/main.o
 .bss.last_m_mqtt_state
                0x00000000823e7393        0x1 build/gcc/obj/custom/main.o
 .bss.DBG_BUFFER
                0x00000000823e7394      0x400 build/gcc/obj/custom/main.o
 .bss.wtdId     0x00000000823e7794        0x4 build/gcc/obj/custom/main.o
 .bss.g_RxBuf_Uart1
                0x00000000823e7798      0x800 build/gcc/obj/custom/main.o
 .bss.m_RxBuf_Uart
                0x00000000823e7f98      0x800 build/gcc/obj/custom/main.o
 .bss.Fota_UpgardeState
                0x00000000823e8798        0x4 build/gcc/obj/custom/dfota/src/dfota_main.o
                0x00000000823e8798                Fota_UpgardeState
 .bss.saved.2250
                0x00000000823e879c        0x4 build/gcc/obj/custom/dfota/src/tracker_functions.o
 .bss.DBG_BUFFER
                0x00000000823e87a0      0x400 build/gcc/obj/custom/dfota/src/tracker_functions.o
 .bss.appBin_fName
                0x00000000823e8ba0       0x34 build/gcc/obj/custom/dfota/src/dfota_ftp.o
 .bss.ServerAdder
                0x00000000823e8bd4       0x28 build/gcc/obj/custom/dfota/src/dfota_ftp.o
 .bss.FilePath  0x00000000823e8bfc       0x3c build/gcc/obj/custom/dfota/src/dfota_ftp.o
 .bss.Ftp_userName
                0x00000000823e8c38       0x14 build/gcc/obj/custom/dfota/src/dfota_ftp.o
 .bss.Ftp_Possword
                0x00000000823e8c4c       0x14 build/gcc/obj/custom/dfota/src/dfota_ftp.o
 .bss.Contextid
                0x00000000823e8c60        0x1 build/gcc/obj/custom/dfota/src/dfota_ftp.o
 *fill*         0x00000000823e8c61        0x3 00
 .bss.SerPort   0x00000000823e8c64        0x4 build/gcc/obj/custom/dfota/src/dfota_ftp.o
 .bss.dbg_httpresponse
                0x00000000823e8c68        0x4 build/gcc/obj/custom/dfota/src/dfota_http_code.o
                0x00000000823e8c68                dbg_httpresponse
 .bss.dbg_ContentLength
                0x00000000823e8c6c        0x4 build/gcc/obj/custom/dfota/src/dfota_http_code.o
                0x00000000823e8c6c                dbg_ContentLength
 .bss.buffer.1344
                0x00000000823e8c70      0x100 build/gcc/obj/custom/dfota/src/json_parser.o
 .bss.saved.4176
                0x00000000823e8d70        0x4 build/gcc/obj/custom/dfota/src/sms_command.o
 .bss.m_ADC_Open
                0x00000000823e8d74        0x4 libs/gcc/app_start.lib(adc.o)
                0x00000000823e8d74                m_ADC_Open
 .bss.m_ADC_Read
                0x00000000823e8d78        0x4 libs/gcc/app_start.lib(adc.o)
                0x00000000823e8d78                m_ADC_Read
 .bss.m_ADC_Close
                0x00000000823e8d7c        0x4 libs/gcc/app_start.lib(adc.o)
                0x00000000823e8d7c                m_ADC_Close
 .bss.m_Timer_Stop
                0x00000000823e8d80        0x4 libs/gcc/app_start.lib(timer.o)
 .bss.m_Timer_Start
                0x00000000823e8d84        0x4 libs/gcc/app_start.lib(timer.o)
 .bss.m_Timer_RegisterFast
                0x00000000823e8d88        0x4 libs/gcc/app_start.lib(timer.o)
 .bss.m_Timer_Register
                0x00000000823e8d8c        0x4 libs/gcc/app_start.lib(timer.o)
 .bss.m_GPRS_SetDNSAddress
                0x00000000823e8d90        0x4 libs/gcc/app_start.lib(gprs.o)
 .bss.m_GPRS_GetDNSAddress
                0x00000000823e8d94        0x4 libs/gcc/app_start.lib(gprs.o)
 .bss.m_GPRS_GetLocalIPAddress
                0x00000000823e8d98        0x4 libs/gcc/app_start.lib(gprs.o)
 .bss.m_GPRS_DeactivateEx
                0x00000000823e8d9c        0x4 libs/gcc/app_start.lib(gprs.o)
 .bss.m_GPRS_Deactivate
                0x00000000823e8da0        0x4 libs/gcc/app_start.lib(gprs.o)
 .bss.m_GPRS_ActivateEx
                0x00000000823e8da4        0x4 libs/gcc/app_start.lib(gprs.o)
 .bss.m_GPRS_Activate
                0x00000000823e8da8        0x4 libs/gcc/app_start.lib(gprs.o)
 .bss.m_GPRS_Register
                0x00000000823e8dac        0x4 libs/gcc/app_start.lib(gprs.o)
 .bss.m_GPRS_Config
                0x00000000823e8db0        0x4 libs/gcc/app_start.lib(gprs.o)
 .bss.m_GPRS_GetPDPCntxtState
                0x00000000823e8db4        0x4 libs/gcc/app_start.lib(gprs.o)
 .bss.m_create_api_hash
                0x00000000823e8db8        0x4 libs/gcc/app_start.lib(ql_func.o)
                0x00000000823e8db8                m_create_api_hash
 .bss.m_get_api_ptr
                0x00000000823e8dbc        0x4 libs/gcc/app_start.lib(ql_func.o)
                0x00000000823e8dbc                m_get_api_ptr
 .bss.m_StartPlayAudioStream
                0x00000000823e8dc0        0x4 libs/gcc/app_start.lib(ql_func.o)
                0x00000000823e8dc0                m_StartPlayAudioStream
 .bss.m_StopPlayAudioStream
                0x00000000823e8dc4        0x4 libs/gcc/app_start.lib(ql_func.o)
                0x00000000823e8dc4                m_StopPlayAudioStream
 .bss.m_AUD_PlayBuf
                0x00000000823e8dc8        0x4 libs/gcc/app_start.lib(ql_func.o)
                0x00000000823e8dc8                m_AUD_PlayBuf
 .bss.m_AUD_StopPlayBuf
                0x00000000823e8dcc        0x4 libs/gcc/app_start.lib(ql_func.o)
                0x00000000823e8dcc                m_AUD_StopPlayBuf
 .bss.m_Ql_AUD_GetStatusPlaybuf
                0x00000000823e8dd0        0x4 libs/gcc/app_start.lib(ql_func.o)
                0x00000000823e8dd0                m_Ql_AUD_GetStatusPlaybuf
 .bss.m_GetRelativeTime_Counter
                0x00000000823e8dd4        0x4 libs/gcc/app_start.lib(ql_func.o)
                0x00000000823e8dd4                m_GetRelativeTime_Counter
 .bss.m_SecondToTicks
                0x00000000823e8dd8        0x4 libs/gcc/app_start.lib(ql_func.o)
                0x00000000823e8dd8                m_SecondToTicks
 .bss.m_MillisecondToTicks
                0x00000000823e8ddc        0x4 libs/gcc/app_start.lib(ql_func.o)
                0x00000000823e8ddc                m_MillisecondToTicks
 .bss.m_CalendarTime2LocalTime
                0x00000000823e8de0        0x4 libs/gcc/app_start.lib(ql_func.o)
                0x00000000823e8de0                m_CalendarTime2LocalTime
 .bss.m_osChangeTaskPriority
                0x00000000823e8de4        0x4 libs/gcc/app_start.lib(ql_func.o)
                0x00000000823e8de4                m_osChangeTaskPriority
 .bss.m_OS_GetCurrenTaskLeftStackSize
                0x00000000823e8de8        0x4 libs/gcc/app_start.lib(taskMngt.o)
 .bss.m_OS_GetCurrentTaskPriority
                0x00000000823e8dec        0x4 libs/gcc/app_start.lib(taskMngt.o)
 .bss.m_OS_GetLastErrorCode
                0x00000000823e8df0        0x4 libs/gcc/app_start.lib(taskMngt.o)
 .bss.m_OS_SetLastErrorCode
                0x00000000823e8df4        0x4 libs/gcc/app_start.lib(taskMngt.o)
 .bss.m_OS_GetActiveTaskId
                0x00000000823e8df8        0x4 libs/gcc/app_start.lib(taskMngt.o)
 .bss.m_OS_SetEvent
                0x00000000823e8dfc        0x4 libs/gcc/app_start.lib(taskMngt.o)
 .bss.m_OS_WaitEvent
                0x00000000823e8e00        0x4 libs/gcc/app_start.lib(taskMngt.o)
 .bss.m_OS_CreateEvent
                0x00000000823e8e04        0x4 libs/gcc/app_start.lib(taskMngt.o)
 .bss.m_OS_GiveSemaphore
                0x00000000823e8e08        0x4 libs/gcc/app_start.lib(taskMngt.o)
 .bss.m_OS_TakeSemaphore
                0x00000000823e8e0c        0x4 libs/gcc/app_start.lib(taskMngt.o)
 .bss.m_OS_CreateSemaphore
                0x00000000823e8e10        0x4 libs/gcc/app_start.lib(taskMngt.o)
 .bss.m_OS_GiveMutex
                0x00000000823e8e14        0x4 libs/gcc/app_start.lib(taskMngt.o)
 .bss.m_OS_TakeMutex
                0x00000000823e8e18        0x4 libs/gcc/app_start.lib(taskMngt.o)
 .bss.m_OS_CreateMutex
                0x00000000823e8e1c        0x4 libs/gcc/app_start.lib(taskMngt.o)
 .bss.m_OS_SendMessage
                0x00000000823e8e20        0x4 libs/gcc/app_start.lib(taskMngt.o)
 .bss.m_OS_GetMessage
                0x00000000823e8e24        0x4 libs/gcc/app_start.lib(taskMngt.o)
 .bss.m_DFOTA_Update
                0x00000000823e8e28        0x4 libs/gcc/app_start.lib(fota.o)
 .bss.m_DFOTA_ReadData
                0x00000000823e8e2c        0x4 libs/gcc/app_start.lib(fota.o)
 .bss.m_DFOTA_Finish
                0x00000000823e8e30        0x4 libs/gcc/app_start.lib(fota.o)
 .bss.m_DFOTA_WriteData
                0x00000000823e8e34        0x4 libs/gcc/app_start.lib(fota.o)
 .bss.m_DFOTA_Init
                0x00000000823e8e38        0x4 libs/gcc/app_start.lib(fota.o)
 .bss.runinfo   0x00000000823e8e3c       0x10 libs/gcc/app_start.lib(ql_main.o)
                0x00000000823e8e3c                runinfo
 .bss.init_size
                0x00000000823e8e4c        0x4 libs/gcc/app_start.lib(ql_main.o)
 .bss.m_MEM_Free
                0x00000000823e8e50        0x4 libs/gcc/app_start.lib(memory.o)
 .bss.m_MEM_Alloc
                0x00000000823e8e54        0x4 libs/gcc/app_start.lib(memory.o)
 .bss.m_isRILInited
                0x00000000823e8e58        0x1 libs/gcc/app_start.lib(ril_main.o)
 *fill*         0x00000000823e8e59        0x3 00
 .bss.m_nAtMutexId
                0x00000000823e8e5c        0x4 libs/gcc/app_start.lib(ril_main.o)
 .bss.m_userdata
                0x00000000823e8e60        0x4 libs/gcc/app_start.lib(ril_main.o)
 .bss.m_atRsp_callback
                0x00000000823e8e64        0x4 libs/gcc/app_start.lib(ril_main.o)
 .bss.m_IsATHandling
                0x00000000823e8e68        0x1 libs/gcc/app_start.lib(ril_main.o)
 *fill*         0x00000000823e8e69        0x3 00
 .bss.g_nEventGrpId
                0x00000000823e8e6c        0x4 libs/gcc/app_start.lib(ril_main.o)
 .bss.m_nATErrCode
                0x00000000823e8e70        0x4 libs/gcc/app_start.lib(ril_main.o)
 .bss.m_pATRspLineBuf
                0x00000000823e8e74        0x4 libs/gcc/app_start.lib(ril_main.o)
 .bss.m_nATRspBufLen
                0x00000000823e8e78        0x4 libs/gcc/app_start.lib(ril_main.o)
 .bss.m_pATRspBuffer
                0x00000000823e8e7c        0x4 libs/gcc/app_start.lib(ril_main.o)
 .bss.m_nATRsp_Result
                0x00000000823e8e80        0x4 libs/gcc/app_start.lib(ril_main.o)
 .bss.m_strATCmd
                0x00000000823e8e84      0x400 libs/gcc/app_start.lib(ril_main.o)
 .bss.m_RxBuf_VirtualPort1
                0x00000000823e9284      0x800 libs/gcc/app_start.lib(ril_main.o)
 .bss.m_data    0x00000000823e9a84        0x8 libs/gcc/app_start.lib(ril_main.o)
 .bss.g_ril_auxTaskReady
                0x00000000823e9a8c        0x1 libs/gcc/app_start.lib(ril_aux.o)
                0x00000000823e9a8c                g_ril_auxTaskReady
 *fill*         0x00000000823e9a8d        0x3 00
 .bss.m_GPIO_Init
                0x00000000823e9a90        0x4 libs/gcc/app_start.lib(gpio.o)
                0x00000000823e9a90                m_GPIO_Init
 .bss.m_GPIO_SetLevel
                0x00000000823e9a94        0x4 libs/gcc/app_start.lib(gpio.o)
                0x00000000823e9a94                m_GPIO_SetLevel
 .bss.m_GPIO_GetLevel
                0x00000000823e9a98        0x4 libs/gcc/app_start.lib(gpio.o)
                0x00000000823e9a98                m_GPIO_GetLevel
 .bss.m_GPIO_SetDirection
                0x00000000823e9a9c        0x4 libs/gcc/app_start.lib(gpio.o)
                0x00000000823e9a9c                m_GPIO_SetDirection
 .bss.m_GPIO_GetDirection
                0x00000000823e9aa0        0x4 libs/gcc/app_start.lib(gpio.o)
                0x00000000823e9aa0                m_GPIO_GetDirection
 .bss.m_GPIO_SetPullSelection
                0x00000000823e9aa4        0x4 libs/gcc/app_start.lib(gpio.o)
                0x00000000823e9aa4                m_GPIO_SetPullSelection
 .bss.m_GPIO_GetPullSelection
                0x00000000823e9aa8        0x4 libs/gcc/app_start.lib(gpio.o)
                0x00000000823e9aa8                m_GPIO_GetPullSelection
 .bss.m_GPIO_Uninit
                0x00000000823e9aac        0x4 libs/gcc/app_start.lib(gpio.o)
                0x00000000823e9aac                m_GPIO_Uninit
 .bss.m_FS_Safe_Write
                0x00000000823e9ab0        0x4 libs/gcc/app_start.lib(fileSys.o)
 .bss.m_FS_Safe_Read
                0x00000000823e9ab4        0x4 libs/gcc/app_start.lib(fileSys.o)
 .bss.m_FS_Format
                0x00000000823e9ab8        0x4 libs/gcc/app_start.lib(fileSys.o)
 .bss.m_FS_GetTotalSpace
                0x00000000823e9abc        0x4 libs/gcc/app_start.lib(fileSys.o)
 .bss.m_FS_GetFreeSpace
                0x00000000823e9ac0        0x4 libs/gcc/app_start.lib(fileSys.o)
 .bss.m_FS_XMove
                0x00000000823e9ac4        0x4 libs/gcc/app_start.lib(fileSys.o)
 .bss.m_FS_XDelete
                0x00000000823e9ac8        0x4 libs/gcc/app_start.lib(fileSys.o)
 .bss.m_FS_FindClose
                0x00000000823e9acc        0x4 libs/gcc/app_start.lib(fileSys.o)
 .bss.m_FS_FindNext
                0x00000000823e9ad0        0x4 libs/gcc/app_start.lib(fileSys.o)
 .bss.m_FS_FindFirst
                0x00000000823e9ad4        0x4 libs/gcc/app_start.lib(fileSys.o)
 .bss.m_FS_CheckDir
                0x00000000823e9ad8        0x4 libs/gcc/app_start.lib(fileSys.o)
 .bss.m_FS_DeleteDir
                0x00000000823e9adc        0x4 libs/gcc/app_start.lib(fileSys.o)
 .bss.m_FS_CreateDir
                0x00000000823e9ae0        0x4 libs/gcc/app_start.lib(fileSys.o)
 .bss.m_FS_Rename
                0x00000000823e9ae4        0x4 libs/gcc/app_start.lib(fileSys.o)
 .bss.m_FS_Check
                0x00000000823e9ae8        0x4 libs/gcc/app_start.lib(fileSys.o)
 .bss.m_FS_Delete
                0x00000000823e9aec        0x4 libs/gcc/app_start.lib(fileSys.o)
 .bss.m_FS_GetSize
                0x00000000823e9af0        0x4 libs/gcc/app_start.lib(fileSys.o)
 .bss.m_FS_Close
                0x00000000823e9af4        0x4 libs/gcc/app_start.lib(fileSys.o)
 .bss.m_FS_Flush
                0x00000000823e9af8        0x4 libs/gcc/app_start.lib(fileSys.o)
 .bss.m_FS_Truncate
                0x00000000823e9afc        0x4 libs/gcc/app_start.lib(fileSys.o)
 .bss.m_FS_GetFilePosition
                0x00000000823e9b00        0x4 libs/gcc/app_start.lib(fileSys.o)
 .bss.m_FS_Seek
                0x00000000823e9b04        0x4 libs/gcc/app_start.lib(fileSys.o)
 .bss.m_FS_Write
                0x00000000823e9b08        0x4 libs/gcc/app_start.lib(fileSys.o)
 .bss.m_FS_Read
                0x00000000823e9b0c        0x4 libs/gcc/app_start.lib(fileSys.o)
 .bss.m_FS_OpenRAMFile
                0x00000000823e9b10        0x4 libs/gcc/app_start.lib(fileSys.o)
 .bss.m_FS_Open
                0x00000000823e9b14        0x4 libs/gcc/app_start.lib(fileSys.o)
 .bss.m_SetSleepMode
                0x00000000823e9b18        0x4 libs/gcc/app_start.lib(power.o)
 .bss.m_SleepDisable
                0x00000000823e9b1c        0x4 libs/gcc/app_start.lib(power.o)
 .bss.m_SleepEnable
                0x00000000823e9b20        0x4 libs/gcc/app_start.lib(power.o)
 .bss.m_GetPowerOnReason
                0x00000000823e9b24        0x4 libs/gcc/app_start.lib(power.o)
 .bss.m_GetPowerSupply
                0x00000000823e9b28        0x4 libs/gcc/app_start.lib(power.o)
 .bss.m_PwrKey_Register
                0x00000000823e9b2c        0x4 libs/gcc/app_start.lib(power.o)
 .bss.m_LockPower
                0x00000000823e9b30        0x4 libs/gcc/app_start.lib(power.o)
 .bss.m_PowerDown
                0x00000000823e9b34        0x4 libs/gcc/app_start.lib(power.o)
 .bss.m_vsprintf
                0x00000000823e9b38        0x4 libs/gcc/app_start.lib(stdlib_func.o)
 .bss.m_strchr  0x00000000823e9b3c        0x4 libs/gcc/app_start.lib(stdlib_func.o)
 .bss.m_strstr  0x00000000823e9b40        0x4 libs/gcc/app_start.lib(stdlib_func.o)
 .bss.m_memmove
                0x00000000823e9b44        0x4 libs/gcc/app_start.lib(stdlib_func.o)
 .bss.m_memcmp  0x00000000823e9b48        0x4 libs/gcc/app_start.lib(stdlib_func.o)
 .bss.m_memcpy  0x00000000823e9b4c        0x4 libs/gcc/app_start.lib(stdlib_func.o)
 .bss.m_memset  0x00000000823e9b50        0x4 libs/gcc/app_start.lib(stdlib_func.o)
 .bss.m_strncmp
                0x00000000823e9b54        0x4 libs/gcc/app_start.lib(stdlib_func.o)
 .bss.m_strcmp  0x00000000823e9b58        0x4 libs/gcc/app_start.lib(stdlib_func.o)
 .bss.m_strlen  0x00000000823e9b5c        0x4 libs/gcc/app_start.lib(stdlib_func.o)
 .bss.m_strncat
                0x00000000823e9b60        0x4 libs/gcc/app_start.lib(stdlib_func.o)
 .bss.m_strcat  0x00000000823e9b64        0x4 libs/gcc/app_start.lib(stdlib_func.o)
 .bss.m_strncpy
                0x00000000823e9b68        0x4 libs/gcc/app_start.lib(stdlib_func.o)
 .bss.m_strcpy  0x00000000823e9b6c        0x4 libs/gcc/app_start.lib(stdlib_func.o)
 .bss.m_atof    0x00000000823e9b70        0x4 libs/gcc/app_start.lib(stdlib_func.o)
 .bss.m_itoa    0x00000000823e9b74        0x4 libs/gcc/app_start.lib(stdlib_func.o)
 .bss.m_ui64toa
                0x00000000823e9b78        0x4 libs/gcc/app_start.lib(stdlib_func.o)
 .bss.m_GetCoreVer
                0x00000000823e9b7c        0x4 libs/gcc/app_start.lib(system.o)
 .bss.m_GetMsSincePwrOn
                0x00000000823e9b80        0x4 libs/gcc/app_start.lib(system.o)
 .bss.m_GetUID  0x00000000823e9b84        0x4 libs/gcc/app_start.lib(system.o)
 .bss.m_Reset   0x00000000823e9b88        0x4 libs/gcc/app_start.lib(system.o)
 .bss.m_Sleep   0x00000000823e9b8c        0x4 libs/gcc/app_start.lib(system.o)
 .bss.m_Ql_UART_TxDoneRegister
                0x00000000823e9b90        0x4 libs/gcc/app_start.lib(uart.o)
 .bss.m_Ql_UART_Close
                0x00000000823e9b94        0x4 libs/gcc/app_start.lib(uart.o)
 .bss.m_Ql_UART_SendEscap
                0x00000000823e9b98        0x4 libs/gcc/app_start.lib(uart.o)
 .bss.m_Ql_UART_SetPinStatus
                0x00000000823e9b9c        0x4 libs/gcc/app_start.lib(uart.o)
 .bss.m_Ql_UART_GetPinStatus
                0x00000000823e9ba0        0x4 libs/gcc/app_start.lib(uart.o)
 .bss.m_Ql_UART_SetOption
                0x00000000823e9ba4        0x4 libs/gcc/app_start.lib(uart.o)
 .bss.m_Ql_UART_GetOption
                0x00000000823e9ba8        0x4 libs/gcc/app_start.lib(uart.o)
 .bss.m_Ql_UART_ClrTxBuffer
                0x00000000823e9bac        0x4 libs/gcc/app_start.lib(uart.o)
 .bss.m_Ql_UART_ClrRxBuffer
                0x00000000823e9bb0        0x4 libs/gcc/app_start.lib(uart.o)
 .bss.m_Ql_UART_GetDCBConfig
                0x00000000823e9bb4        0x4 libs/gcc/app_start.lib(uart.o)
 .bss.m_Ql_UART_SetDCBConfig
                0x00000000823e9bb8        0x4 libs/gcc/app_start.lib(uart.o)
 .bss.m_Ql_UART_Read
                0x00000000823e9bbc        0x4 libs/gcc/app_start.lib(uart.o)
 .bss.m_Ql_UART_Write
                0x00000000823e9bc0        0x4 libs/gcc/app_start.lib(uart.o)
 .bss.m_Ql_UART_OpenEx
                0x00000000823e9bc4        0x4 libs/gcc/app_start.lib(uart.o)
 .bss.m_Ql_UART_Open
                0x00000000823e9bc8        0x4 libs/gcc/app_start.lib(uart.o)
 .bss.m_Ql_UART_Register
                0x00000000823e9bcc        0x4 libs/gcc/app_start.lib(uart.o)
 .bss.isWtdInit
                0x00000000823e9bd0        0x1 libs/gcc/app_start.lib(watchdog.o)
 *fill*         0x00000000823e9bd1        0x3 00
 .bss.pWtdList  0x00000000823e9bd4        0x4 libs/gcc/app_start.lib(watchdog.o)
 .bss.WtdListCount
                0x00000000823e9bd8        0x1 libs/gcc/app_start.lib(watchdog.o)
 *fill*         0x00000000823e9bd9        0x3 00
 .bss.WtdPin    0x00000000823e9bdc        0x4 libs/gcc/app_start.lib(watchdog.o)
 .bss.WtdInterval
                0x00000000823e9be0        0x4 libs/gcc/app_start.lib(watchdog.o)
 .bss.WtdOverCounter
                0x00000000823e9be4        0x1 libs/gcc/app_start.lib(watchdog.o)
 *fill*         0x00000000823e9be5        0x3 00
 .bss.WtdResetMode
                0x00000000823e9be8        0x4 libs/gcc/app_start.lib(watchdog.o)
 .bss.Wtd_GPIO_LEVEL
                0x00000000823e9bec        0x4 libs/gcc/app_start.lib(watchdog.o)
 .bss.m_MKTime2CalendarTime
                0x00000000823e9bf0        0x4 libs/gcc/app_start.lib(time.o)
 .bss.m_Mktime  0x00000000823e9bf4        0x4 libs/gcc/app_start.lib(time.o)
 .bss.m_GetLocalTime
                0x00000000823e9bf8        0x4 libs/gcc/app_start.lib(time.o)
 .bss.m_SetLocalTime
                0x00000000823e9bfc        0x4 libs/gcc/app_start.lib(time.o)
 .bss.m_SOC_SSL_InjectCertification
                0x00000000823e9c00        0x4 libs/gcc/app_start.lib(socket.o)
 .bss.m_SOC_SetOption
                0x00000000823e9c04        0x4 libs/gcc/app_start.lib(socket.o)
 .bss.m_IpHelper_ConvertIpAddr
                0x00000000823e9c08        0x4 libs/gcc/app_start.lib(socket.o)
 .bss.m_IpHelper_GetIPByHostNameEx
                0x00000000823e9c0c        0x4 libs/gcc/app_start.lib(socket.o)
 .bss.m_IpHelper_GetIPByHostName
                0x00000000823e9c10        0x4 libs/gcc/app_start.lib(socket.o)
 .bss.m_SOC_Accept
                0x00000000823e9c14        0x4 libs/gcc/app_start.lib(socket.o)
 .bss.m_SOC_Listen
                0x00000000823e9c18        0x4 libs/gcc/app_start.lib(socket.o)
 .bss.m_SOC_Bind
                0x00000000823e9c1c        0x4 libs/gcc/app_start.lib(socket.o)
 .bss.m_SOC_RecvFrom
                0x00000000823e9c20        0x4 libs/gcc/app_start.lib(socket.o)
 .bss.m_SOC_SendTo
                0x00000000823e9c24        0x4 libs/gcc/app_start.lib(socket.o)
 .bss.m_Ql_SOC_GetAckNumber
                0x00000000823e9c28        0x4 libs/gcc/app_start.lib(socket.o)
 .bss.m_Ql_SOC_Recv
                0x00000000823e9c2c        0x4 libs/gcc/app_start.lib(socket.o)
 .bss.m_SOC_Send
                0x00000000823e9c30        0x4 libs/gcc/app_start.lib(socket.o)
 .bss.m_SOC_ConnectEx
                0x00000000823e9c34        0x4 libs/gcc/app_start.lib(socket.o)
 .bss.m_SOC_Connect
                0x00000000823e9c38        0x4 libs/gcc/app_start.lib(socket.o)
 .bss.m_Ql_SOC_Close
                0x00000000823e9c3c        0x4 libs/gcc/app_start.lib(socket.o)
 .bss.m_SOC_CreateEx
                0x00000000823e9c40        0x4 libs/gcc/app_start.lib(socket.o)
 .bss.m_SOC_Create
                0x00000000823e9c44        0x4 libs/gcc/app_start.lib(socket.o)
 .bss.m_SOC_Register
                0x00000000823e9c48        0x4 libs/gcc/app_start.lib(socket.o)
 *(COMMON)
 COMMON         0x00000000823e9c4c      0x124 build/gcc/obj/ril/src/ril_telephony.o
                0x00000000823e9c4c                g_comingCall
 COMMON         0x00000000823e9d70       0x1c build/gcc/obj/ril/src/ril_location2.o
                0x00000000823e9d70                loclnfo
 *fill*         0x00000000823e9d8c        0x4 00
 COMMON         0x00000000823e9d90     0x2edc build/gcc/obj/custom/main.o
                0x00000000823e9d90                prevGnssData
                0x00000000823e9dd8                mainCellInfo
                0x00000000823e9de8                receivedSms
                0x00000000823ea1e8                deviceData
                0x00000000823ea5e8                secondCellInfo
                0x00000000823ea5f8                devConfig
                0x00000000823eb0f8                commandData
                0x00000000823eb4f8                fourthCellInfo
                0x00000000823eb508                g_asConSMSBuf
                0x00000000823ec6a8                gnssData
                0x00000000823ec6f0                mqtt_topic_info_t
                0x00000000823ec73c                senderPhone
                0x00000000823ec75c                thirdCellInfo
                0x00000000823ec76c                deviceAlarm
                0x00000000823ecb6c                neighbors
 COMMON         0x00000000823ecc6c       0xc0 build/gcc/obj/custom/dfota/src/dfota_main.o
                0x00000000823ecc6c                Fota_gprsCfg
                0x00000000823ecd1c                FotaConfig
 COMMON         0x00000000823ecd2c      0x200 build/gcc/obj/custom/dfota/src/dfota_http_code.o
                0x00000000823ecd2c                Temp_DBGBuffer
 COMMON         0x00000000823ecf2c      0x234 build/gcc/obj/custom/dfota/src/dfota_http.o
                0x00000000823ecf2c                httpMainContext
 *(.scommon)
 .scommon       0x00000000823ed160       0x10 build/gcc/obj/custom/main.o
                0x00000000823ed160                mqtt_con_status
                0x00000000823ed164                lastLocationPush
                0x00000000823ed168                batteryLevel
                0x00000000823ed16c                ignationPinLevel
 .scommon       0x00000000823ed170       0x18 libs/gcc/app_start.lib(ql_main.o)
                0x00000000823ed170                Ql_snprintf
                0x00000000823ed174                Ql_sprintf
                0x00000000823ed178                Ql_Debug_Trace
                0x00000000823ed17c                Ql_sscanf
                0x00000000823ed180                Ql_Debug_TraceEx
                0x00000000823ed184                Ql_vsnprintf
 .scommon       0x00000000823ed188        0x4 libs/gcc/app_start.lib(ril_main.o)
                0x00000000823ed188                MQTT_Recvhandler
                0x00000000823ed190                . = ALIGN (0x10)
 *fill*         0x00000000823ed18c        0x4 00
                0x00000000823ed190                _RAM_BSS_END = .
                0x0000000000005e80                _RAM_BSS_SIZE = (_RAM_BSS_END - _RAM_BSS_START)
                0x0000000000000001                ASSERT (((_ROM_RW_DATA_SIZE + _RAM_BSS_SIZE) < (__RAM_END_ADDR - __RAM_START_ADDR)), APP RAM OVERFLOW !!)
LOAD build/gcc/obj/custom/config/custom_sys_cfg.o
LOAD build/gcc/obj/custom/config/sys_config.o
LOAD build/gcc/obj/ril/src/ril_audio.o
LOAD build/gcc/obj/ril/src/ril_custom.o
LOAD build/gcc/obj/ril/src/ril_http.o
LOAD build/gcc/obj/ril/src/ril_urc.o
LOAD build/gcc/obj/ril/src/ril_atResponse.o
LOAD build/gcc/obj/ril/src/ril_network.o
LOAD build/gcc/obj/ril/src/ril_location.o
LOAD build/gcc/obj/ril/src/ril_ntp.o
LOAD build/gcc/obj/ril/src/ril_telephony.o
LOAD build/gcc/obj/ril/src/ril_sms.o
LOAD build/gcc/obj/ril/src/ril_system.o
LOAD build/gcc/obj/ril/src/Ril_dtmf.o
LOAD build/gcc/obj/ril/src/ril_sim.o
LOAD build/gcc/obj/ril/src/ril_location2.o
LOAD build/gcc/obj/ril/src/ril_gnss.o
LOAD build/gcc/obj/ril/src/ril_init.o
LOAD build/gcc/obj/ril/src/ril_ftp.o
LOAD build/gcc/obj/ril/src/ril_alarm.o
LOAD build/gcc/obj/ril/src/ril_util.o
LOAD build/gcc/obj/ril/src/ril_mqtt.o
LOAD build/gcc/obj/custom/main.o
LOAD build/gcc/obj/custom/dfota/src/dfota_main.o
LOAD build/gcc/obj/custom/dfota/src/tracker_functions.o
LOAD build/gcc/obj/custom/dfota/src/gnss_parser.o
LOAD build/gcc/obj/custom/dfota/src/dfota_ftp.o
LOAD build/gcc/obj/custom/dfota/src/dfota_http_code.o
LOAD build/gcc/obj/custom/dfota/src/dfota_http.o
LOAD build/gcc/obj/custom/dfota/src/json_parser.o
LOAD build/gcc/obj/custom/dfota/src/sms_command.o
LOAD libs/gcc/fplibm.lib
LOAD libs/gcc/app_start.lib
LOAD C:\CSDTK4\/mips-elf-4.4.2/lib/gcc/mips-elf/4.4.2/libgcc.a
OUTPUT(build/gcc/APPGS5MDM32A01.elf elf32-littlemips)

.reginfo        0x0000000000000000       0x18
 .reginfo       0x0000000000000000       0x18 build/gcc/obj/custom/config/custom_sys_cfg.o

.pdr            0x0000000000000000     0x41e0
 .pdr           0x0000000000000000       0x20 build/gcc/obj/custom/config/custom_sys_cfg.o
 .pdr           0x0000000000000020        0x0 build/gcc/obj/custom/config/sys_config.o
 .pdr           0x0000000000000020      0x1e0 build/gcc/obj/ril/src/ril_audio.o
 .pdr           0x0000000000000200       0x20 build/gcc/obj/ril/src/ril_custom.o
 .pdr           0x0000000000000220       0xc0 build/gcc/obj/ril/src/ril_http.o
 .pdr           0x00000000000002e0      0x2c0 build/gcc/obj/ril/src/ril_urc.o
 .pdr           0x00000000000005a0       0x60 build/gcc/obj/ril/src/ril_atResponse.o
 .pdr           0x0000000000000600      0x220 build/gcc/obj/ril/src/ril_network.o
 .pdr           0x0000000000000820       0xa0 build/gcc/obj/ril/src/ril_location.o
 .pdr           0x00000000000008c0       0x40 build/gcc/obj/ril/src/ril_ntp.o
 .pdr           0x0000000000000900       0xa0 build/gcc/obj/ril/src/ril_telephony.o
 .pdr           0x00000000000009a0      0x1e0 build/gcc/obj/ril/src/ril_sms.o
 .pdr           0x0000000000000b80       0xe0 build/gcc/obj/ril/src/ril_system.o
 .pdr           0x0000000000000c60      0x100 build/gcc/obj/ril/src/Ril_dtmf.o
 .pdr           0x0000000000000d60       0xe0 build/gcc/obj/ril/src/ril_sim.o
 .pdr           0x0000000000000e40       0xa0 build/gcc/obj/ril/src/ril_location2.o
 .pdr           0x0000000000000ee0      0x1c0 build/gcc/obj/ril/src/ril_gnss.o
 .pdr           0x00000000000010a0       0x40 build/gcc/obj/ril/src/ril_init.o
 .pdr           0x00000000000010e0      0x240 build/gcc/obj/ril/src/ril_ftp.o
 .pdr           0x0000000000001320       0x80 build/gcc/obj/ril/src/ril_alarm.o
 .pdr           0x00000000000013a0       0xc0 build/gcc/obj/ril/src/ril_util.o
 .pdr           0x0000000000001460      0x180 build/gcc/obj/ril/src/ril_mqtt.o
 .pdr           0x00000000000015e0      0x280 build/gcc/obj/custom/main.o
 .pdr           0x0000000000001860       0x40 build/gcc/obj/custom/dfota/src/dfota_main.o
 .pdr           0x00000000000018a0      0x1c0 build/gcc/obj/custom/dfota/src/tracker_functions.o
 .pdr           0x0000000000001a60       0x40 build/gcc/obj/custom/dfota/src/gnss_parser.o
 .pdr           0x0000000000001aa0       0x60 build/gcc/obj/custom/dfota/src/dfota_ftp.o
 .pdr           0x0000000000001b00       0xa0 build/gcc/obj/custom/dfota/src/dfota_http_code.o
 .pdr           0x0000000000001ba0      0x220 build/gcc/obj/custom/dfota/src/dfota_http.o
 .pdr           0x0000000000001dc0       0x80 build/gcc/obj/custom/dfota/src/json_parser.o
 .pdr           0x0000000000001e40      0x380 build/gcc/obj/custom/dfota/src/sms_command.o
 .pdr           0x00000000000021c0       0x20 libs/gcc/fplibm.lib(s_cos.o)
 .pdr           0x00000000000021e0       0x20 libs/gcc/fplibm.lib(s_sin.o)
 .pdr           0x0000000000002200       0x20 libs/gcc/fplibm.lib(w_atan2.o)
 .pdr           0x0000000000002220       0x20 libs/gcc/fplibm.lib(w_sqrt.o)
 .pdr           0x0000000000002240       0x20 libs/gcc/fplibm.lib(e_atan2.o)
 .pdr           0x0000000000002260       0x20 libs/gcc/fplibm.lib(e_rem_pio2.o)
 .pdr           0x0000000000002280       0x20 libs/gcc/fplibm.lib(e_sqrt.o)
 .pdr           0x00000000000022a0       0x20 libs/gcc/fplibm.lib(k_cos.o)
 .pdr           0x00000000000022c0       0x20 libs/gcc/fplibm.lib(k_rem_pio2.o)
 .pdr           0x00000000000022e0       0x20 libs/gcc/fplibm.lib(k_sin.o)
 .pdr           0x0000000000002300       0x20 libs/gcc/fplibm.lib(s_atan.o)
 .pdr           0x0000000000002320       0x20 libs/gcc/fplibm.lib(s_floor.o)
 .pdr           0x0000000000002340       0x20 libs/gcc/fplibm.lib(s_scalbn.o)
 .pdr           0x0000000000002360       0x60 libs/gcc/app_start.lib(adc.o)
 .pdr           0x00000000000023c0       0x80 libs/gcc/app_start.lib(timer.o)
 .pdr           0x0000000000002440      0x160 libs/gcc/app_start.lib(gprs.o)
 .pdr           0x00000000000025a0      0x140 libs/gcc/app_start.lib(ql_func.o)
 .pdr           0x00000000000026e0      0x200 libs/gcc/app_start.lib(taskMngt.o)
 .pdr           0x00000000000028e0       0xa0 libs/gcc/app_start.lib(fota.o)
 .pdr           0x0000000000002980       0x80 libs/gcc/app_start.lib(ql_main.o)
 .pdr           0x0000000000002a00       0x40 libs/gcc/app_start.lib(memory.o)
 .pdr           0x0000000000002a40      0x200 libs/gcc/app_start.lib(ril_main.o)
 .pdr           0x0000000000002c40       0x20 libs/gcc/app_start.lib(ril_aux.o)
 .pdr           0x0000000000002c60      0x100 libs/gcc/app_start.lib(gpio.o)
 .pdr           0x0000000000002d60       0x20 libs/gcc/app_start.lib(ocpi_init.o)
 .pdr           0x0000000000002d80      0x340 libs/gcc/app_start.lib(fileSys.o)
 .pdr           0x00000000000030c0      0x120 libs/gcc/app_start.lib(power.o)
 .pdr           0x00000000000031e0      0x220 libs/gcc/app_start.lib(lib_ril_sms.o)
 .pdr           0x0000000000003400      0x2c0 libs/gcc/app_start.lib(stdlib_func.o)
 .pdr           0x00000000000036c0       0xe0 libs/gcc/app_start.lib(system.o)
 .pdr           0x00000000000037a0      0x240 libs/gcc/app_start.lib(uart.o)
 .pdr           0x00000000000039e0      0x160 libs/gcc/app_start.lib(watchdog.o)
 .pdr           0x0000000000003b40       0x80 libs/gcc/app_start.lib(time.o)
 .pdr           0x0000000000003bc0      0x260 libs/gcc/app_start.lib(socket.o)
 .pdr           0x0000000000003e20       0x20 C:\CSDTK4\/mips-elf-4.4.2/lib/gcc/mips-elf/4.4.2/libgcc.a(_fixunsdfsi.o)
 .pdr           0x0000000000003e40       0x60 C:\CSDTK4\/mips-elf-4.4.2/lib/gcc/mips-elf/4.4.2/libgcc.a(_addsub_sf.o)
 .pdr           0x0000000000003ea0       0x20 C:\CSDTK4\/mips-elf-4.4.2/lib/gcc/mips-elf/4.4.2/libgcc.a(_mul_sf.o)
 .pdr           0x0000000000003ec0       0x20 C:\CSDTK4\/mips-elf-4.4.2/lib/gcc/mips-elf/4.4.2/libgcc.a(_div_sf.o)
 .pdr           0x0000000000003ee0       0x20 C:\CSDTK4\/mips-elf-4.4.2/lib/gcc/mips-elf/4.4.2/libgcc.a(_sf_to_df.o)
 .pdr           0x0000000000003f00        0x0 C:\CSDTK4\/mips-elf-4.4.2/lib/gcc/mips-elf/4.4.2/libgcc.a(_thenan_sf.o)
 .pdr           0x0000000000003f00       0x20 C:\CSDTK4\/mips-elf-4.4.2/lib/gcc/mips-elf/4.4.2/libgcc.a(_usi_to_sf.o)
 .pdr           0x0000000000003f20       0x60 C:\CSDTK4\/mips-elf-4.4.2/lib/gcc/mips-elf/4.4.2/libgcc.a(_addsub_df.o)
 .pdr           0x0000000000003f80       0x20 C:\CSDTK4\/mips-elf-4.4.2/lib/gcc/mips-elf/4.4.2/libgcc.a(_mul_df.o)
 .pdr           0x0000000000003fa0       0x20 C:\CSDTK4\/mips-elf-4.4.2/lib/gcc/mips-elf/4.4.2/libgcc.a(_div_df.o)
 .pdr           0x0000000000003fc0       0x20 C:\CSDTK4\/mips-elf-4.4.2/lib/gcc/mips-elf/4.4.2/libgcc.a(_eq_df.o)
 .pdr           0x0000000000003fe0       0x20 C:\CSDTK4\/mips-elf-4.4.2/lib/gcc/mips-elf/4.4.2/libgcc.a(_gt_df.o)
 .pdr           0x0000000000004000       0x20 C:\CSDTK4\/mips-elf-4.4.2/lib/gcc/mips-elf/4.4.2/libgcc.a(_ge_df.o)
 .pdr           0x0000000000004020       0x20 C:\CSDTK4\/mips-elf-4.4.2/lib/gcc/mips-elf/4.4.2/libgcc.a(_si_to_df.o)
 .pdr           0x0000000000004040       0x20 C:\CSDTK4\/mips-elf-4.4.2/lib/gcc/mips-elf/4.4.2/libgcc.a(_df_to_si.o)
 .pdr           0x0000000000004060       0x20 C:\CSDTK4\/mips-elf-4.4.2/lib/gcc/mips-elf/4.4.2/libgcc.a(_make_df.o)
 .pdr           0x0000000000004080       0x20 C:\CSDTK4\/mips-elf-4.4.2/lib/gcc/mips-elf/4.4.2/libgcc.a(_df_to_sf.o)
 .pdr           0x00000000000040a0        0x0 C:\CSDTK4\/mips-elf-4.4.2/lib/gcc/mips-elf/4.4.2/libgcc.a(_thenan_df.o)
 .pdr           0x00000000000040a0       0x20 C:\CSDTK4\/mips-elf-4.4.2/lib/gcc/mips-elf/4.4.2/libgcc.a(_lshrdi3.o)
 .pdr           0x00000000000040c0       0x20 C:\CSDTK4\/mips-elf-4.4.2/lib/gcc/mips-elf/4.4.2/libgcc.a(_ashldi3.o)
 .pdr           0x00000000000040e0       0x20 C:\CSDTK4\/mips-elf-4.4.2/lib/gcc/mips-elf/4.4.2/libgcc.a(_ucmpdi2.o)
 .pdr           0x0000000000004100       0x20 C:\CSDTK4\/mips-elf-4.4.2/lib/gcc/mips-elf/4.4.2/libgcc.a(_clzsi2.o)
 .pdr           0x0000000000004120       0x20 C:\CSDTK4\/mips-elf-4.4.2/lib/gcc/mips-elf/4.4.2/libgcc.a(_pack_sf.o)
 .pdr           0x0000000000004140       0x20 C:\CSDTK4\/mips-elf-4.4.2/lib/gcc/mips-elf/4.4.2/libgcc.a(_unpack_sf.o)
 .pdr           0x0000000000004160       0x20 C:\CSDTK4\/mips-elf-4.4.2/lib/gcc/mips-elf/4.4.2/libgcc.a(_make_sf.o)
 .pdr           0x0000000000004180       0x20 C:\CSDTK4\/mips-elf-4.4.2/lib/gcc/mips-elf/4.4.2/libgcc.a(_pack_df.o)
 .pdr           0x00000000000041a0       0x20 C:\CSDTK4\/mips-elf-4.4.2/lib/gcc/mips-elf/4.4.2/libgcc.a(_unpack_df.o)
 .pdr           0x00000000000041c0       0x20 C:\CSDTK4\/mips-elf-4.4.2/lib/gcc/mips-elf/4.4.2/libgcc.a(_fpcmp_parts_df.o)
 .pdr           0x00000000000041e0        0x0 C:\CSDTK4\/mips-elf-4.4.2/lib/gcc/mips-elf/4.4.2/libgcc.a(_clz.o)

.mdebug.abi32   0x0000000000000000        0x0
 .mdebug.abi32  0x0000000000000000        0x0 build/gcc/obj/custom/config/custom_sys_cfg.o
 .mdebug.abi32  0x0000000000000000        0x0 build/gcc/obj/custom/config/sys_config.o
 .mdebug.abi32  0x0000000000000000        0x0 build/gcc/obj/ril/src/ril_audio.o
 .mdebug.abi32  0x0000000000000000        0x0 build/gcc/obj/ril/src/ril_custom.o
 .mdebug.abi32  0x0000000000000000        0x0 build/gcc/obj/ril/src/ril_http.o
 .mdebug.abi32  0x0000000000000000        0x0 build/gcc/obj/ril/src/ril_urc.o
 .mdebug.abi32  0x0000000000000000        0x0 build/gcc/obj/ril/src/ril_atResponse.o
 .mdebug.abi32  0x0000000000000000        0x0 build/gcc/obj/ril/src/ril_network.o
 .mdebug.abi32  0x0000000000000000        0x0 build/gcc/obj/ril/src/ril_location.o
 .mdebug.abi32  0x0000000000000000        0x0 build/gcc/obj/ril/src/ril_ntp.o
 .mdebug.abi32  0x0000000000000000        0x0 build/gcc/obj/ril/src/ril_telephony.o
 .mdebug.abi32  0x0000000000000000        0x0 build/gcc/obj/ril/src/ril_sms.o
 .mdebug.abi32  0x0000000000000000        0x0 build/gcc/obj/ril/src/ril_system.o
 .mdebug.abi32  0x0000000000000000        0x0 build/gcc/obj/ril/src/Ril_dtmf.o
 .mdebug.abi32  0x0000000000000000        0x0 build/gcc/obj/ril/src/ril_sim.o
 .mdebug.abi32  0x0000000000000000        0x0 build/gcc/obj/ril/src/ril_location2.o
 .mdebug.abi32  0x0000000000000000        0x0 build/gcc/obj/ril/src/ril_gnss.o
 .mdebug.abi32  0x0000000000000000        0x0 build/gcc/obj/ril/src/ril_init.o
 .mdebug.abi32  0x0000000000000000        0x0 build/gcc/obj/ril/src/ril_ftp.o
 .mdebug.abi32  0x0000000000000000        0x0 build/gcc/obj/ril/src/ril_alarm.o
 .mdebug.abi32  0x0000000000000000        0x0 build/gcc/obj/ril/src/ril_util.o
 .mdebug.abi32  0x0000000000000000        0x0 build/gcc/obj/ril/src/ril_mqtt.o
 .mdebug.abi32  0x0000000000000000        0x0 build/gcc/obj/custom/main.o
 .mdebug.abi32  0x0000000000000000        0x0 build/gcc/obj/custom/dfota/src/dfota_main.o
 .mdebug.abi32  0x0000000000000000        0x0 build/gcc/obj/custom/dfota/src/tracker_functions.o
 .mdebug.abi32  0x0000000000000000        0x0 build/gcc/obj/custom/dfota/src/gnss_parser.o
 .mdebug.abi32  0x0000000000000000        0x0 build/gcc/obj/custom/dfota/src/dfota_ftp.o
 .mdebug.abi32  0x0000000000000000        0x0 build/gcc/obj/custom/dfota/src/dfota_http_code.o
 .mdebug.abi32  0x0000000000000000        0x0 build/gcc/obj/custom/dfota/src/dfota_http.o
 .mdebug.abi32  0x0000000000000000        0x0 build/gcc/obj/custom/dfota/src/json_parser.o
 .mdebug.abi32  0x0000000000000000        0x0 build/gcc/obj/custom/dfota/src/sms_command.o
 .mdebug.abi32  0x0000000000000000        0x0 libs/gcc/fplibm.lib(s_cos.o)
 .mdebug.abi32  0x0000000000000000        0x0 libs/gcc/fplibm.lib(s_sin.o)
 .mdebug.abi32  0x0000000000000000        0x0 libs/gcc/fplibm.lib(w_atan2.o)
 .mdebug.abi32  0x0000000000000000        0x0 libs/gcc/fplibm.lib(w_sqrt.o)
 .mdebug.abi32  0x0000000000000000        0x0 libs/gcc/fplibm.lib(e_atan2.o)
 .mdebug.abi32  0x0000000000000000        0x0 libs/gcc/fplibm.lib(e_rem_pio2.o)
 .mdebug.abi32  0x0000000000000000        0x0 libs/gcc/fplibm.lib(e_sqrt.o)
 .mdebug.abi32  0x0000000000000000        0x0 libs/gcc/fplibm.lib(k_cos.o)
 .mdebug.abi32  0x0000000000000000        0x0 libs/gcc/fplibm.lib(k_rem_pio2.o)
 .mdebug.abi32  0x0000000000000000        0x0 libs/gcc/fplibm.lib(k_sin.o)
 .mdebug.abi32  0x0000000000000000        0x0 libs/gcc/fplibm.lib(s_atan.o)
 .mdebug.abi32  0x0000000000000000        0x0 libs/gcc/fplibm.lib(s_floor.o)
 .mdebug.abi32  0x0000000000000000        0x0 libs/gcc/fplibm.lib(s_scalbn.o)
 .mdebug.abi32  0x0000000000000000        0x0 libs/gcc/app_start.lib(adc.o)
 .mdebug.abi32  0x0000000000000000        0x0 libs/gcc/app_start.lib(timer.o)
 .mdebug.abi32  0x0000000000000000        0x0 libs/gcc/app_start.lib(gprs.o)
 .mdebug.abi32  0x0000000000000000        0x0 libs/gcc/app_start.lib(ql_func.o)
 .mdebug.abi32  0x0000000000000000        0x0 libs/gcc/app_start.lib(taskMngt.o)
 .mdebug.abi32  0x0000000000000000        0x0 libs/gcc/app_start.lib(fota.o)
 .mdebug.abi32  0x0000000000000000        0x0 libs/gcc/app_start.lib(ql_main.o)
 .mdebug.abi32  0x0000000000000000        0x0 libs/gcc/app_start.lib(memory.o)
 .mdebug.abi32  0x0000000000000000        0x0 libs/gcc/app_start.lib(ril_main.o)
 .mdebug.abi32  0x0000000000000000        0x0 libs/gcc/app_start.lib(ril_aux.o)
 .mdebug.abi32  0x0000000000000000        0x0 libs/gcc/app_start.lib(gpio.o)
 .mdebug.abi32  0x0000000000000000        0x0 libs/gcc/app_start.lib(ocpi_init.o)
 .mdebug.abi32  0x0000000000000000        0x0 libs/gcc/app_start.lib(fileSys.o)
 .mdebug.abi32  0x0000000000000000        0x0 libs/gcc/app_start.lib(power.o)
 .mdebug.abi32  0x0000000000000000        0x0 libs/gcc/app_start.lib(lib_ril_sms.o)
 .mdebug.abi32  0x0000000000000000        0x0 libs/gcc/app_start.lib(stdlib_func.o)
 .mdebug.abi32  0x0000000000000000        0x0 libs/gcc/app_start.lib(system.o)
 .mdebug.abi32  0x0000000000000000        0x0 libs/gcc/app_start.lib(uart.o)
 .mdebug.abi32  0x0000000000000000        0x0 libs/gcc/app_start.lib(watchdog.o)
 .mdebug.abi32  0x0000000000000000        0x0 libs/gcc/app_start.lib(time.o)
 .mdebug.abi32  0x0000000000000000        0x0 libs/gcc/app_start.lib(socket.o)
 .mdebug.abi32  0x0000000000000000        0x0 C:\CSDTK4\/mips-elf-4.4.2/lib/gcc/mips-elf/4.4.2/libgcc.a(_fixunsdfsi.o)
 .mdebug.abi32  0x0000000000000000        0x0 C:\CSDTK4\/mips-elf-4.4.2/lib/gcc/mips-elf/4.4.2/libgcc.a(_addsub_sf.o)
 .mdebug.abi32  0x0000000000000000        0x0 C:\CSDTK4\/mips-elf-4.4.2/lib/gcc/mips-elf/4.4.2/libgcc.a(_mul_sf.o)
 .mdebug.abi32  0x0000000000000000        0x0 C:\CSDTK4\/mips-elf-4.4.2/lib/gcc/mips-elf/4.4.2/libgcc.a(_div_sf.o)
 .mdebug.abi32  0x0000000000000000        0x0 C:\CSDTK4\/mips-elf-4.4.2/lib/gcc/mips-elf/4.4.2/libgcc.a(_sf_to_df.o)
 .mdebug.abi32  0x0000000000000000        0x0 C:\CSDTK4\/mips-elf-4.4.2/lib/gcc/mips-elf/4.4.2/libgcc.a(_thenan_sf.o)
 .mdebug.abi32  0x0000000000000000        0x0 C:\CSDTK4\/mips-elf-4.4.2/lib/gcc/mips-elf/4.4.2/libgcc.a(_usi_to_sf.o)
 .mdebug.abi32  0x0000000000000000        0x0 C:\CSDTK4\/mips-elf-4.4.2/lib/gcc/mips-elf/4.4.2/libgcc.a(_addsub_df.o)
 .mdebug.abi32  0x0000000000000000        0x0 C:\CSDTK4\/mips-elf-4.4.2/lib/gcc/mips-elf/4.4.2/libgcc.a(_mul_df.o)
 .mdebug.abi32  0x0000000000000000        0x0 C:\CSDTK4\/mips-elf-4.4.2/lib/gcc/mips-elf/4.4.2/libgcc.a(_div_df.o)
 .mdebug.abi32  0x0000000000000000        0x0 C:\CSDTK4\/mips-elf-4.4.2/lib/gcc/mips-elf/4.4.2/libgcc.a(_eq_df.o)
 .mdebug.abi32  0x0000000000000000        0x0 C:\CSDTK4\/mips-elf-4.4.2/lib/gcc/mips-elf/4.4.2/libgcc.a(_gt_df.o)
 .mdebug.abi32  0x0000000000000000        0x0 C:\CSDTK4\/mips-elf-4.4.2/lib/gcc/mips-elf/4.4.2/libgcc.a(_ge_df.o)
 .mdebug.abi32  0x0000000000000000        0x0 C:\CSDTK4\/mips-elf-4.4.2/lib/gcc/mips-elf/4.4.2/libgcc.a(_si_to_df.o)
 .mdebug.abi32  0x0000000000000000        0x0 C:\CSDTK4\/mips-elf-4.4.2/lib/gcc/mips-elf/4.4.2/libgcc.a(_df_to_si.o)
 .mdebug.abi32  0x0000000000000000        0x0 C:\CSDTK4\/mips-elf-4.4.2/lib/gcc/mips-elf/4.4.2/libgcc.a(_make_df.o)
 .mdebug.abi32  0x0000000000000000        0x0 C:\CSDTK4\/mips-elf-4.4.2/lib/gcc/mips-elf/4.4.2/libgcc.a(_df_to_sf.o)
 .mdebug.abi32  0x0000000000000000        0x0 C:\CSDTK4\/mips-elf-4.4.2/lib/gcc/mips-elf/4.4.2/libgcc.a(_thenan_df.o)
 .mdebug.abi32  0x0000000000000000        0x0 C:\CSDTK4\/mips-elf-4.4.2/lib/gcc/mips-elf/4.4.2/libgcc.a(_lshrdi3.o)
 .mdebug.abi32  0x0000000000000000        0x0 C:\CSDTK4\/mips-elf-4.4.2/lib/gcc/mips-elf/4.4.2/libgcc.a(_ashldi3.o)
 .mdebug.abi32  0x0000000000000000        0x0 C:\CSDTK4\/mips-elf-4.4.2/lib/gcc/mips-elf/4.4.2/libgcc.a(_ucmpdi2.o)
 .mdebug.abi32  0x0000000000000000        0x0 C:\CSDTK4\/mips-elf-4.4.2/lib/gcc/mips-elf/4.4.2/libgcc.a(_clzsi2.o)
 .mdebug.abi32  0x0000000000000000        0x0 C:\CSDTK4\/mips-elf-4.4.2/lib/gcc/mips-elf/4.4.2/libgcc.a(_pack_sf.o)
 .mdebug.abi32  0x0000000000000000        0x0 C:\CSDTK4\/mips-elf-4.4.2/lib/gcc/mips-elf/4.4.2/libgcc.a(_unpack_sf.o)
 .mdebug.abi32  0x0000000000000000        0x0 C:\CSDTK4\/mips-elf-4.4.2/lib/gcc/mips-elf/4.4.2/libgcc.a(_make_sf.o)
 .mdebug.abi32  0x0000000000000000        0x0 C:\CSDTK4\/mips-elf-4.4.2/lib/gcc/mips-elf/4.4.2/libgcc.a(_pack_df.o)
 .mdebug.abi32  0x0000000000000000        0x0 C:\CSDTK4\/mips-elf-4.4.2/lib/gcc/mips-elf/4.4.2/libgcc.a(_unpack_df.o)
 .mdebug.abi32  0x0000000000000000        0x0 C:\CSDTK4\/mips-elf-4.4.2/lib/gcc/mips-elf/4.4.2/libgcc.a(_fpcmp_parts_df.o)
 .mdebug.abi32  0x0000000000000000        0x0 C:\CSDTK4\/mips-elf-4.4.2/lib/gcc/mips-elf/4.4.2/libgcc.a(_clz.o)

.comment        0x0000000000000000       0x56
 .comment       0x0000000000000000       0x25 build/gcc/obj/custom/config/custom_sys_cfg.o
                                         0x26 (size before relaxing)
 .comment       0x0000000000000000       0x26 build/gcc/obj/custom/config/sys_config.o
 .comment       0x0000000000000000       0x26 build/gcc/obj/ril/src/ril_audio.o
 .comment       0x0000000000000000       0x26 build/gcc/obj/ril/src/ril_custom.o
 .comment       0x0000000000000000       0x26 build/gcc/obj/ril/src/ril_http.o
 .comment       0x0000000000000000       0x26 build/gcc/obj/ril/src/ril_urc.o
 .comment       0x0000000000000000       0x26 build/gcc/obj/ril/src/ril_atResponse.o
 .comment       0x0000000000000000       0x26 build/gcc/obj/ril/src/ril_network.o
 .comment       0x0000000000000000       0x26 build/gcc/obj/ril/src/ril_location.o
 .comment       0x0000000000000000       0x26 build/gcc/obj/ril/src/ril_ntp.o
 .comment       0x0000000000000000       0x26 build/gcc/obj/ril/src/ril_telephony.o
 .comment       0x0000000000000000       0x26 build/gcc/obj/ril/src/ril_sms.o
 .comment       0x0000000000000000       0x26 build/gcc/obj/ril/src/ril_system.o
 .comment       0x0000000000000000       0x26 build/gcc/obj/ril/src/Ril_dtmf.o
 .comment       0x0000000000000000       0x26 build/gcc/obj/ril/src/ril_sim.o
 .comment       0x0000000000000000       0x26 build/gcc/obj/ril/src/ril_location2.o
 .comment       0x0000000000000000       0x26 build/gcc/obj/ril/src/ril_gnss.o
 .comment       0x0000000000000000       0x26 build/gcc/obj/ril/src/ril_init.o
 .comment       0x0000000000000000       0x26 build/gcc/obj/ril/src/ril_ftp.o
 .comment       0x0000000000000000       0x26 build/gcc/obj/ril/src/ril_alarm.o
 .comment       0x0000000000000000       0x26 build/gcc/obj/ril/src/ril_util.o
 .comment       0x0000000000000000       0x26 build/gcc/obj/ril/src/ril_mqtt.o
 .comment       0x0000000000000000       0x26 build/gcc/obj/custom/main.o
 .comment       0x0000000000000000       0x26 build/gcc/obj/custom/dfota/src/dfota_main.o
 .comment       0x0000000000000000       0x26 build/gcc/obj/custom/dfota/src/tracker_functions.o
 .comment       0x0000000000000000       0x26 build/gcc/obj/custom/dfota/src/gnss_parser.o
 .comment       0x0000000000000000       0x26 build/gcc/obj/custom/dfota/src/dfota_ftp.o
 .comment       0x0000000000000000       0x26 build/gcc/obj/custom/dfota/src/dfota_http_code.o
 .comment       0x0000000000000000       0x26 build/gcc/obj/custom/dfota/src/dfota_http.o
 .comment       0x0000000000000000       0x26 build/gcc/obj/custom/dfota/src/json_parser.o
 .comment       0x0000000000000000       0x26 build/gcc/obj/custom/dfota/src/sms_command.o
 .comment       0x0000000000000025       0x31 libs/gcc/fplibm.lib(s_cos.o)
                                         0x32 (size before relaxing)
 .comment       0x0000000000000000       0x32 libs/gcc/fplibm.lib(s_sin.o)
 .comment       0x0000000000000000       0x32 libs/gcc/fplibm.lib(w_atan2.o)
 .comment       0x0000000000000000       0x32 libs/gcc/fplibm.lib(w_sqrt.o)
 .comment       0x0000000000000000       0x32 libs/gcc/fplibm.lib(e_atan2.o)
 .comment       0x0000000000000000       0x32 libs/gcc/fplibm.lib(e_rem_pio2.o)
 .comment       0x0000000000000000       0x32 libs/gcc/fplibm.lib(e_sqrt.o)
 .comment       0x0000000000000000       0x32 libs/gcc/fplibm.lib(k_cos.o)
 .comment       0x0000000000000000       0x32 libs/gcc/fplibm.lib(k_rem_pio2.o)
 .comment       0x0000000000000000       0x32 libs/gcc/fplibm.lib(k_sin.o)
 .comment       0x0000000000000000       0x32 libs/gcc/fplibm.lib(s_atan.o)
 .comment       0x0000000000000000       0x32 libs/gcc/fplibm.lib(s_floor.o)
 .comment       0x0000000000000000       0x32 libs/gcc/fplibm.lib(s_scalbn.o)
 .comment       0x0000000000000000       0x26 libs/gcc/app_start.lib(adc.o)
 .comment       0x0000000000000000       0x26 libs/gcc/app_start.lib(timer.o)
 .comment       0x0000000000000000       0x26 libs/gcc/app_start.lib(gprs.o)
 .comment       0x0000000000000000       0x26 libs/gcc/app_start.lib(ql_func.o)
 .comment       0x0000000000000000       0x26 libs/gcc/app_start.lib(taskMngt.o)
 .comment       0x0000000000000000       0x26 libs/gcc/app_start.lib(fota.o)
 .comment       0x0000000000000000       0x26 libs/gcc/app_start.lib(ql_main.o)
 .comment       0x0000000000000000       0x26 libs/gcc/app_start.lib(memory.o)
 .comment       0x0000000000000000       0x26 libs/gcc/app_start.lib(ril_main.o)
 .comment       0x0000000000000000       0x26 libs/gcc/app_start.lib(ril_aux.o)
 .comment       0x0000000000000000       0x26 libs/gcc/app_start.lib(gpio.o)
 .comment       0x0000000000000000       0x26 libs/gcc/app_start.lib(ocpi_init.o)
 .comment       0x0000000000000000       0x26 libs/gcc/app_start.lib(fileSys.o)
 .comment       0x0000000000000000       0x26 libs/gcc/app_start.lib(power.o)
 .comment       0x0000000000000000       0x26 libs/gcc/app_start.lib(lib_ril_sms.o)
 .comment       0x0000000000000000       0x26 libs/gcc/app_start.lib(stdlib_func.o)
 .comment       0x0000000000000000       0x26 libs/gcc/app_start.lib(system.o)
 .comment       0x0000000000000000       0x26 libs/gcc/app_start.lib(uart.o)
 .comment       0x0000000000000000       0x26 libs/gcc/app_start.lib(watchdog.o)
 .comment       0x0000000000000000       0x26 libs/gcc/app_start.lib(time.o)
 .comment       0x0000000000000000       0x26 libs/gcc/app_start.lib(socket.o)
 .comment       0x0000000000000000       0x26 C:\CSDTK4\/mips-elf-4.4.2/lib/gcc/mips-elf/4.4.2/libgcc.a(_fixunsdfsi.o)
 .comment       0x0000000000000000       0x26 C:\CSDTK4\/mips-elf-4.4.2/lib/gcc/mips-elf/4.4.2/libgcc.a(_addsub_sf.o)
 .comment       0x0000000000000000       0x26 C:\CSDTK4\/mips-elf-4.4.2/lib/gcc/mips-elf/4.4.2/libgcc.a(_mul_sf.o)
 .comment       0x0000000000000000       0x26 C:\CSDTK4\/mips-elf-4.4.2/lib/gcc/mips-elf/4.4.2/libgcc.a(_div_sf.o)
 .comment       0x0000000000000000       0x26 C:\CSDTK4\/mips-elf-4.4.2/lib/gcc/mips-elf/4.4.2/libgcc.a(_sf_to_df.o)
 .comment       0x0000000000000000       0x26 C:\CSDTK4\/mips-elf-4.4.2/lib/gcc/mips-elf/4.4.2/libgcc.a(_thenan_sf.o)
 .comment       0x0000000000000000       0x26 C:\CSDTK4\/mips-elf-4.4.2/lib/gcc/mips-elf/4.4.2/libgcc.a(_usi_to_sf.o)
 .comment       0x0000000000000000       0x26 C:\CSDTK4\/mips-elf-4.4.2/lib/gcc/mips-elf/4.4.2/libgcc.a(_addsub_df.o)
 .comment       0x0000000000000000       0x26 C:\CSDTK4\/mips-elf-4.4.2/lib/gcc/mips-elf/4.4.2/libgcc.a(_mul_df.o)
 .comment       0x0000000000000000       0x26 C:\CSDTK4\/mips-elf-4.4.2/lib/gcc/mips-elf/4.4.2/libgcc.a(_div_df.o)
 .comment       0x0000000000000000       0x26 C:\CSDTK4\/mips-elf-4.4.2/lib/gcc/mips-elf/4.4.2/libgcc.a(_eq_df.o)
 .comment       0x0000000000000000       0x26 C:\CSDTK4\/mips-elf-4.4.2/lib/gcc/mips-elf/4.4.2/libgcc.a(_gt_df.o)
 .comment       0x0000000000000000       0x26 C:\CSDTK4\/mips-elf-4.4.2/lib/gcc/mips-elf/4.4.2/libgcc.a(_ge_df.o)
 .comment       0x0000000000000000       0x26 C:\CSDTK4\/mips-elf-4.4.2/lib/gcc/mips-elf/4.4.2/libgcc.a(_si_to_df.o)
 .comment       0x0000000000000000       0x26 C:\CSDTK4\/mips-elf-4.4.2/lib/gcc/mips-elf/4.4.2/libgcc.a(_df_to_si.o)
 .comment       0x0000000000000000       0x26 C:\CSDTK4\/mips-elf-4.4.2/lib/gcc/mips-elf/4.4.2/libgcc.a(_make_df.o)
 .comment       0x0000000000000000       0x26 C:\CSDTK4\/mips-elf-4.4.2/lib/gcc/mips-elf/4.4.2/libgcc.a(_df_to_sf.o)
 .comment       0x0000000000000000       0x26 C:\CSDTK4\/mips-elf-4.4.2/lib/gcc/mips-elf/4.4.2/libgcc.a(_thenan_df.o)
 .comment       0x0000000000000000       0x26 C:\CSDTK4\/mips-elf-4.4.2/lib/gcc/mips-elf/4.4.2/libgcc.a(_lshrdi3.o)
 .comment       0x0000000000000000       0x26 C:\CSDTK4\/mips-elf-4.4.2/lib/gcc/mips-elf/4.4.2/libgcc.a(_ashldi3.o)
 .comment       0x0000000000000000       0x26 C:\CSDTK4\/mips-elf-4.4.2/lib/gcc/mips-elf/4.4.2/libgcc.a(_ucmpdi2.o)
 .comment       0x0000000000000000       0x26 C:\CSDTK4\/mips-elf-4.4.2/lib/gcc/mips-elf/4.4.2/libgcc.a(_clzsi2.o)
 .comment       0x0000000000000000       0x26 C:\CSDTK4\/mips-elf-4.4.2/lib/gcc/mips-elf/4.4.2/libgcc.a(_pack_sf.o)
 .comment       0x0000000000000000       0x26 C:\CSDTK4\/mips-elf-4.4.2/lib/gcc/mips-elf/4.4.2/libgcc.a(_unpack_sf.o)
 .comment       0x0000000000000000       0x26 C:\CSDTK4\/mips-elf-4.4.2/lib/gcc/mips-elf/4.4.2/libgcc.a(_make_sf.o)
 .comment       0x0000000000000000       0x26 C:\CSDTK4\/mips-elf-4.4.2/lib/gcc/mips-elf/4.4.2/libgcc.a(_pack_df.o)
 .comment       0x0000000000000000       0x26 C:\CSDTK4\/mips-elf-4.4.2/lib/gcc/mips-elf/4.4.2/libgcc.a(_unpack_df.o)
 .comment       0x0000000000000000       0x26 C:\CSDTK4\/mips-elf-4.4.2/lib/gcc/mips-elf/4.4.2/libgcc.a(_fpcmp_parts_df.o)
 .comment       0x0000000000000000       0x26 C:\CSDTK4\/mips-elf-4.4.2/lib/gcc/mips-elf/4.4.2/libgcc.a(_clz.o)

.gnu.attributes
                0x0000000000000000       0x10
 .gnu.attributes
                0x0000000000000000       0x10 build/gcc/obj/custom/config/custom_sys_cfg.o
 .gnu.attributes
                0x0000000000000010       0x10 build/gcc/obj/custom/config/sys_config.o
 .gnu.attributes
                0x0000000000000020       0x10 build/gcc/obj/ril/src/ril_audio.o
 .gnu.attributes
                0x0000000000000030       0x10 build/gcc/obj/ril/src/ril_custom.o
 .gnu.attributes
                0x0000000000000040       0x10 build/gcc/obj/ril/src/ril_http.o
 .gnu.attributes
                0x0000000000000050       0x10 build/gcc/obj/ril/src/ril_urc.o
 .gnu.attributes
                0x0000000000000060       0x10 build/gcc/obj/ril/src/ril_atResponse.o
 .gnu.attributes
                0x0000000000000070       0x10 build/gcc/obj/ril/src/ril_network.o
 .gnu.attributes
                0x0000000000000080       0x10 build/gcc/obj/ril/src/ril_location.o
 .gnu.attributes
                0x0000000000000090       0x10 build/gcc/obj/ril/src/ril_ntp.o
 .gnu.attributes
                0x00000000000000a0       0x10 build/gcc/obj/ril/src/ril_telephony.o
 .gnu.attributes
                0x00000000000000b0       0x10 build/gcc/obj/ril/src/ril_sms.o
 .gnu.attributes
                0x00000000000000c0       0x10 build/gcc/obj/ril/src/ril_system.o
 .gnu.attributes
                0x00000000000000d0       0x10 build/gcc/obj/ril/src/Ril_dtmf.o
 .gnu.attributes
                0x00000000000000e0       0x10 build/gcc/obj/ril/src/ril_sim.o
 .gnu.attributes
                0x00000000000000f0       0x10 build/gcc/obj/ril/src/ril_location2.o
 .gnu.attributes
                0x0000000000000100       0x10 build/gcc/obj/ril/src/ril_gnss.o
 .gnu.attributes
                0x0000000000000110       0x10 build/gcc/obj/ril/src/ril_init.o
 .gnu.attributes
                0x0000000000000120       0x10 build/gcc/obj/ril/src/ril_ftp.o
 .gnu.attributes
                0x0000000000000130       0x10 build/gcc/obj/ril/src/ril_alarm.o
 .gnu.attributes
                0x0000000000000140       0x10 build/gcc/obj/ril/src/ril_util.o
 .gnu.attributes
                0x0000000000000150       0x10 build/gcc/obj/ril/src/ril_mqtt.o
 .gnu.attributes
                0x0000000000000160       0x10 build/gcc/obj/custom/main.o
 .gnu.attributes
                0x0000000000000170       0x10 build/gcc/obj/custom/dfota/src/dfota_main.o
 .gnu.attributes
                0x0000000000000180       0x10 build/gcc/obj/custom/dfota/src/tracker_functions.o
 .gnu.attributes
                0x0000000000000190       0x10 build/gcc/obj/custom/dfota/src/gnss_parser.o
 .gnu.attributes
                0x00000000000001a0       0x10 build/gcc/obj/custom/dfota/src/dfota_ftp.o
 .gnu.attributes
                0x00000000000001b0       0x10 build/gcc/obj/custom/dfota/src/dfota_http_code.o
 .gnu.attributes
                0x00000000000001c0       0x10 build/gcc/obj/custom/dfota/src/dfota_http.o
 .gnu.attributes
                0x00000000000001d0       0x10 build/gcc/obj/custom/dfota/src/json_parser.o
 .gnu.attributes
                0x00000000000001e0       0x10 build/gcc/obj/custom/dfota/src/sms_command.o
 .gnu.attributes
                0x00000000000001f0       0x10 libs/gcc/fplibm.lib(s_cos.o)
 .gnu.attributes
                0x0000000000000200       0x10 libs/gcc/fplibm.lib(s_sin.o)
 .gnu.attributes
                0x0000000000000210       0x10 libs/gcc/fplibm.lib(w_atan2.o)
 .gnu.attributes
                0x0000000000000220       0x10 libs/gcc/fplibm.lib(w_sqrt.o)
 .gnu.attributes
                0x0000000000000230       0x10 libs/gcc/fplibm.lib(e_atan2.o)
 .gnu.attributes
                0x0000000000000240       0x10 libs/gcc/fplibm.lib(e_rem_pio2.o)
 .gnu.attributes
                0x0000000000000250       0x10 libs/gcc/fplibm.lib(e_sqrt.o)
 .gnu.attributes
                0x0000000000000260       0x10 libs/gcc/fplibm.lib(k_cos.o)
 .gnu.attributes
                0x0000000000000270       0x10 libs/gcc/fplibm.lib(k_rem_pio2.o)
 .gnu.attributes
                0x0000000000000280       0x10 libs/gcc/fplibm.lib(k_sin.o)
 .gnu.attributes
                0x0000000000000290       0x10 libs/gcc/fplibm.lib(s_atan.o)
 .gnu.attributes
                0x00000000000002a0       0x10 libs/gcc/fplibm.lib(s_floor.o)
 .gnu.attributes
                0x00000000000002b0       0x10 libs/gcc/fplibm.lib(s_scalbn.o)
 .gnu.attributes
                0x00000000000002c0       0x10 libs/gcc/app_start.lib(adc.o)
 .gnu.attributes
                0x00000000000002d0       0x10 libs/gcc/app_start.lib(timer.o)
 .gnu.attributes
                0x00000000000002e0       0x10 libs/gcc/app_start.lib(gprs.o)
 .gnu.attributes
                0x00000000000002f0       0x10 libs/gcc/app_start.lib(ql_func.o)
 .gnu.attributes
                0x0000000000000300       0x10 libs/gcc/app_start.lib(taskMngt.o)
 .gnu.attributes
                0x0000000000000310       0x10 libs/gcc/app_start.lib(fota.o)
 .gnu.attributes
                0x0000000000000320       0x10 libs/gcc/app_start.lib(ql_main.o)
 .gnu.attributes
                0x0000000000000330       0x10 libs/gcc/app_start.lib(memory.o)
 .gnu.attributes
                0x0000000000000340       0x10 libs/gcc/app_start.lib(ril_main.o)
 .gnu.attributes
                0x0000000000000350       0x10 libs/gcc/app_start.lib(ril_aux.o)
 .gnu.attributes
                0x0000000000000360       0x10 libs/gcc/app_start.lib(gpio.o)
 .gnu.attributes
                0x0000000000000370       0x10 libs/gcc/app_start.lib(ocpi_init.o)
 .gnu.attributes
                0x0000000000000380       0x10 libs/gcc/app_start.lib(fileSys.o)
 .gnu.attributes
                0x0000000000000390       0x10 libs/gcc/app_start.lib(power.o)
 .gnu.attributes
                0x00000000000003a0       0x10 libs/gcc/app_start.lib(lib_ril_sms.o)
 .gnu.attributes
                0x00000000000003b0       0x10 libs/gcc/app_start.lib(stdlib_func.o)
 .gnu.attributes
                0x00000000000003c0       0x10 libs/gcc/app_start.lib(system.o)
 .gnu.attributes
                0x00000000000003d0       0x10 libs/gcc/app_start.lib(uart.o)
 .gnu.attributes
                0x00000000000003e0       0x10 libs/gcc/app_start.lib(watchdog.o)
 .gnu.attributes
                0x00000000000003f0       0x10 libs/gcc/app_start.lib(time.o)
 .gnu.attributes
                0x0000000000000400       0x10 libs/gcc/app_start.lib(socket.o)
 .gnu.attributes
                0x0000000000000410       0x10 C:\CSDTK4\/mips-elf-4.4.2/lib/gcc/mips-elf/4.4.2/libgcc.a(_fixunsdfsi.o)
 .gnu.attributes
                0x0000000000000420       0x10 C:\CSDTK4\/mips-elf-4.4.2/lib/gcc/mips-elf/4.4.2/libgcc.a(_addsub_sf.o)
 .gnu.attributes
                0x0000000000000430       0x10 C:\CSDTK4\/mips-elf-4.4.2/lib/gcc/mips-elf/4.4.2/libgcc.a(_mul_sf.o)
 .gnu.attributes
                0x0000000000000440       0x10 C:\CSDTK4\/mips-elf-4.4.2/lib/gcc/mips-elf/4.4.2/libgcc.a(_div_sf.o)
 .gnu.attributes
                0x0000000000000450       0x10 C:\CSDTK4\/mips-elf-4.4.2/lib/gcc/mips-elf/4.4.2/libgcc.a(_sf_to_df.o)
 .gnu.attributes
                0x0000000000000460       0x10 C:\CSDTK4\/mips-elf-4.4.2/lib/gcc/mips-elf/4.4.2/libgcc.a(_thenan_sf.o)
 .gnu.attributes
                0x0000000000000470       0x10 C:\CSDTK4\/mips-elf-4.4.2/lib/gcc/mips-elf/4.4.2/libgcc.a(_usi_to_sf.o)
 .gnu.attributes
                0x0000000000000480       0x10 C:\CSDTK4\/mips-elf-4.4.2/lib/gcc/mips-elf/4.4.2/libgcc.a(_addsub_df.o)
 .gnu.attributes
                0x0000000000000490       0x10 C:\CSDTK4\/mips-elf-4.4.2/lib/gcc/mips-elf/4.4.2/libgcc.a(_mul_df.o)
 .gnu.attributes
                0x00000000000004a0       0x10 C:\CSDTK4\/mips-elf-4.4.2/lib/gcc/mips-elf/4.4.2/libgcc.a(_div_df.o)
 .gnu.attributes
                0x00000000000004b0       0x10 C:\CSDTK4\/mips-elf-4.4.2/lib/gcc/mips-elf/4.4.2/libgcc.a(_eq_df.o)
 .gnu.attributes
                0x00000000000004c0       0x10 C:\CSDTK4\/mips-elf-4.4.2/lib/gcc/mips-elf/4.4.2/libgcc.a(_gt_df.o)
 .gnu.attributes
                0x00000000000004d0       0x10 C:\CSDTK4\/mips-elf-4.4.2/lib/gcc/mips-elf/4.4.2/libgcc.a(_ge_df.o)
 .gnu.attributes
                0x00000000000004e0       0x10 C:\CSDTK4\/mips-elf-4.4.2/lib/gcc/mips-elf/4.4.2/libgcc.a(_si_to_df.o)
 .gnu.attributes
                0x00000000000004f0       0x10 C:\CSDTK4\/mips-elf-4.4.2/lib/gcc/mips-elf/4.4.2/libgcc.a(_df_to_si.o)
 .gnu.attributes
                0x0000000000000500       0x10 C:\CSDTK4\/mips-elf-4.4.2/lib/gcc/mips-elf/4.4.2/libgcc.a(_make_df.o)
 .gnu.attributes
                0x0000000000000510       0x10 C:\CSDTK4\/mips-elf-4.4.2/lib/gcc/mips-elf/4.4.2/libgcc.a(_df_to_sf.o)
 .gnu.attributes
                0x0000000000000520       0x10 C:\CSDTK4\/mips-elf-4.4.2/lib/gcc/mips-elf/4.4.2/libgcc.a(_thenan_df.o)
 .gnu.attributes
                0x0000000000000530       0x10 C:\CSDTK4\/mips-elf-4.4.2/lib/gcc/mips-elf/4.4.2/libgcc.a(_lshrdi3.o)
 .gnu.attributes
                0x0000000000000540       0x10 C:\CSDTK4\/mips-elf-4.4.2/lib/gcc/mips-elf/4.4.2/libgcc.a(_ashldi3.o)
 .gnu.attributes
                0x0000000000000550       0x10 C:\CSDTK4\/mips-elf-4.4.2/lib/gcc/mips-elf/4.4.2/libgcc.a(_ucmpdi2.o)
 .gnu.attributes
                0x0000000000000560       0x10 C:\CSDTK4\/mips-elf-4.4.2/lib/gcc/mips-elf/4.4.2/libgcc.a(_clzsi2.o)
 .gnu.attributes
                0x0000000000000570       0x10 C:\CSDTK4\/mips-elf-4.4.2/lib/gcc/mips-elf/4.4.2/libgcc.a(_pack_sf.o)
 .gnu.attributes
                0x0000000000000580       0x10 C:\CSDTK4\/mips-elf-4.4.2/lib/gcc/mips-elf/4.4.2/libgcc.a(_unpack_sf.o)
 .gnu.attributes
                0x0000000000000590       0x10 C:\CSDTK4\/mips-elf-4.4.2/lib/gcc/mips-elf/4.4.2/libgcc.a(_make_sf.o)
 .gnu.attributes
                0x00000000000005a0       0x10 C:\CSDTK4\/mips-elf-4.4.2/lib/gcc/mips-elf/4.4.2/libgcc.a(_pack_df.o)
 .gnu.attributes
                0x00000000000005b0       0x10 C:\CSDTK4\/mips-elf-4.4.2/lib/gcc/mips-elf/4.4.2/libgcc.a(_unpack_df.o)
 .gnu.attributes
                0x00000000000005c0       0x10 C:\CSDTK4\/mips-elf-4.4.2/lib/gcc/mips-elf/4.4.2/libgcc.a(_fpcmp_parts_df.o)
 .gnu.attributes
                0x00000000000005d0       0x10 C:\CSDTK4\/mips-elf-4.4.2/lib/gcc/mips-elf/4.4.2/libgcc.a(_clz.o)

.debug_abbrev   0x0000000000000000     0x8532
 .debug_abbrev  0x0000000000000000       0xe1 build/gcc/obj/custom/config/custom_sys_cfg.o
 .debug_abbrev  0x00000000000000e1       0xcf build/gcc/obj/custom/config/sys_config.o
 .debug_abbrev  0x00000000000001b0      0x24b build/gcc/obj/ril/src/ril_audio.o
 .debug_abbrev  0x00000000000003fb       0xa6 build/gcc/obj/ril/src/ril_custom.o
 .debug_abbrev  0x00000000000004a1      0x149 build/gcc/obj/ril/src/ril_http.o
 .debug_abbrev  0x00000000000005ea      0x267 build/gcc/obj/ril/src/ril_urc.o
 .debug_abbrev  0x0000000000000851      0x11c build/gcc/obj/ril/src/ril_atResponse.o
 .debug_abbrev  0x000000000000096d      0x23e build/gcc/obj/ril/src/ril_network.o
 .debug_abbrev  0x0000000000000bab      0x196 build/gcc/obj/ril/src/ril_location.o
 .debug_abbrev  0x0000000000000d41      0x11c build/gcc/obj/ril/src/ril_ntp.o
 .debug_abbrev  0x0000000000000e5d      0x180 build/gcc/obj/ril/src/ril_telephony.o
 .debug_abbrev  0x0000000000000fdd      0x29d build/gcc/obj/ril/src/ril_sms.o
 .debug_abbrev  0x000000000000127a      0x149 build/gcc/obj/ril/src/ril_system.o
 .debug_abbrev  0x00000000000013c3      0x1b1 build/gcc/obj/ril/src/Ril_dtmf.o
 .debug_abbrev  0x0000000000001574      0x216 build/gcc/obj/ril/src/ril_sim.o
 .debug_abbrev  0x000000000000178a      0x1a7 build/gcc/obj/ril/src/ril_location2.o
 .debug_abbrev  0x0000000000001931      0x1c6 build/gcc/obj/ril/src/ril_gnss.o
 .debug_abbrev  0x0000000000001af7       0x8c build/gcc/obj/ril/src/ril_init.o
 .debug_abbrev  0x0000000000001b83      0x20b build/gcc/obj/ril/src/ril_ftp.o
 .debug_abbrev  0x0000000000001d8e      0x17f build/gcc/obj/ril/src/ril_alarm.o
 .debug_abbrev  0x0000000000001f0d      0x14b build/gcc/obj/ril/src/ril_util.o
 .debug_abbrev  0x0000000000002058      0x207 build/gcc/obj/ril/src/ril_mqtt.o
 .debug_abbrev  0x000000000000225f      0x339 build/gcc/obj/custom/main.o
 .debug_abbrev  0x0000000000002598      0x13f build/gcc/obj/custom/dfota/src/dfota_main.o
 .debug_abbrev  0x00000000000026d7      0x1eb build/gcc/obj/custom/dfota/src/tracker_functions.o
 .debug_abbrev  0x00000000000028c2      0x159 build/gcc/obj/custom/dfota/src/gnss_parser.o
 .debug_abbrev  0x0000000000002a1b      0x1f6 build/gcc/obj/custom/dfota/src/dfota_ftp.o
 .debug_abbrev  0x0000000000002c11      0x296 build/gcc/obj/custom/dfota/src/dfota_http_code.o
 .debug_abbrev  0x0000000000002ea7      0x283 build/gcc/obj/custom/dfota/src/dfota_http.o
 .debug_abbrev  0x000000000000312a      0x11a build/gcc/obj/custom/dfota/src/json_parser.o
 .debug_abbrev  0x0000000000003244      0x300 build/gcc/obj/custom/dfota/src/sms_command.o
 .debug_abbrev  0x0000000000003544       0xa7 libs/gcc/fplibm.lib(s_cos.o)
 .debug_abbrev  0x00000000000035eb       0xa7 libs/gcc/fplibm.lib(s_sin.o)
 .debug_abbrev  0x0000000000003692       0x52 libs/gcc/fplibm.lib(w_atan2.o)
 .debug_abbrev  0x00000000000036e4       0x52 libs/gcc/fplibm.lib(w_sqrt.o)
 .debug_abbrev  0x0000000000003736      0x115 libs/gcc/fplibm.lib(e_atan2.o)
 .debug_abbrev  0x000000000000384b      0x137 libs/gcc/fplibm.lib(e_rem_pio2.o)
 .debug_abbrev  0x0000000000003982      0x113 libs/gcc/fplibm.lib(e_sqrt.o)
 .debug_abbrev  0x0000000000003a95       0xec libs/gcc/fplibm.lib(k_cos.o)
 .debug_abbrev  0x0000000000003b81      0x100 libs/gcc/fplibm.lib(k_rem_pio2.o)
 .debug_abbrev  0x0000000000003c81       0xa2 libs/gcc/fplibm.lib(k_sin.o)
 .debug_abbrev  0x0000000000003d23      0x13f libs/gcc/fplibm.lib(s_atan.o)
 .debug_abbrev  0x0000000000003e62      0x106 libs/gcc/fplibm.lib(s_floor.o)
 .debug_abbrev  0x0000000000003f68       0xf5 libs/gcc/fplibm.lib(s_scalbn.o)
 .debug_abbrev  0x000000000000405d       0xef libs/gcc/app_start.lib(adc.o)
 .debug_abbrev  0x000000000000414c       0xfd libs/gcc/app_start.lib(timer.o)
 .debug_abbrev  0x0000000000004249      0x151 libs/gcc/app_start.lib(gprs.o)
 .debug_abbrev  0x000000000000439a      0x160 libs/gcc/app_start.lib(ql_func.o)
 .debug_abbrev  0x00000000000044fa      0x141 libs/gcc/app_start.lib(taskMngt.o)
 .debug_abbrev  0x000000000000463b      0x121 libs/gcc/app_start.lib(fota.o)
 .debug_abbrev  0x000000000000475c      0x21d libs/gcc/app_start.lib(ql_main.o)
 .debug_abbrev  0x0000000000004979      0x120 libs/gcc/app_start.lib(memory.o)
 .debug_abbrev  0x0000000000004a99      0x33e libs/gcc/app_start.lib(ril_main.o)
 .debug_abbrev  0x0000000000004dd7       0xe4 libs/gcc/app_start.lib(ril_aux.o)
 .debug_abbrev  0x0000000000004ebb       0xfe libs/gcc/app_start.lib(gpio.o)
 .debug_abbrev  0x0000000000004fb9       0x88 libs/gcc/app_start.lib(ocpi_init.o)
 .debug_abbrev  0x0000000000005041      0x16a libs/gcc/app_start.lib(fileSys.o)
 .debug_abbrev  0x00000000000051ab      0x159 libs/gcc/app_start.lib(power.o)
 .debug_abbrev  0x0000000000005304      0x2dc libs/gcc/app_start.lib(lib_ril_sms.o)
 .debug_abbrev  0x00000000000055e0      0x223 libs/gcc/app_start.lib(stdlib_func.o)
 .debug_abbrev  0x0000000000005803      0x145 libs/gcc/app_start.lib(system.o)
 .debug_abbrev  0x0000000000005948      0x1a6 libs/gcc/app_start.lib(uart.o)
 .debug_abbrev  0x0000000000005aee      0x215 libs/gcc/app_start.lib(watchdog.o)
 .debug_abbrev  0x0000000000005d03      0x118 libs/gcc/app_start.lib(time.o)
 .debug_abbrev  0x0000000000005e1b      0x17d libs/gcc/app_start.lib(socket.o)
 .debug_abbrev  0x0000000000005f98       0x66 C:\CSDTK4\/mips-elf-4.4.2/lib/gcc/mips-elf/4.4.2/libgcc.a(_fixunsdfsi.o)
 .debug_abbrev  0x0000000000005ffe      0x1db C:\CSDTK4\/mips-elf-4.4.2/lib/gcc/mips-elf/4.4.2/libgcc.a(_addsub_sf.o)
 .debug_abbrev  0x00000000000061d9      0x1f9 C:\CSDTK4\/mips-elf-4.4.2/lib/gcc/mips-elf/4.4.2/libgcc.a(_mul_sf.o)
 .debug_abbrev  0x00000000000063d2      0x1dc C:\CSDTK4\/mips-elf-4.4.2/lib/gcc/mips-elf/4.4.2/libgcc.a(_div_sf.o)
 .debug_abbrev  0x00000000000065ae      0x131 C:\CSDTK4\/mips-elf-4.4.2/lib/gcc/mips-elf/4.4.2/libgcc.a(_sf_to_df.o)
 .debug_abbrev  0x00000000000066df       0xc3 C:\CSDTK4\/mips-elf-4.4.2/lib/gcc/mips-elf/4.4.2/libgcc.a(_thenan_sf.o)
 .debug_abbrev  0x00000000000067a2      0x157 C:\CSDTK4\/mips-elf-4.4.2/lib/gcc/mips-elf/4.4.2/libgcc.a(_usi_to_sf.o)
 .debug_abbrev  0x00000000000068f9      0x1ea C:\CSDTK4\/mips-elf-4.4.2/lib/gcc/mips-elf/4.4.2/libgcc.a(_addsub_df.o)
 .debug_abbrev  0x0000000000006ae3      0x200 C:\CSDTK4\/mips-elf-4.4.2/lib/gcc/mips-elf/4.4.2/libgcc.a(_mul_df.o)
 .debug_abbrev  0x0000000000006ce3      0x1dc C:\CSDTK4\/mips-elf-4.4.2/lib/gcc/mips-elf/4.4.2/libgcc.a(_div_df.o)
 .debug_abbrev  0x0000000000006ebf      0x15a C:\CSDTK4\/mips-elf-4.4.2/lib/gcc/mips-elf/4.4.2/libgcc.a(_eq_df.o)
 .debug_abbrev  0x0000000000007019      0x15a C:\CSDTK4\/mips-elf-4.4.2/lib/gcc/mips-elf/4.4.2/libgcc.a(_gt_df.o)
 .debug_abbrev  0x0000000000007173      0x15a C:\CSDTK4\/mips-elf-4.4.2/lib/gcc/mips-elf/4.4.2/libgcc.a(_ge_df.o)
 .debug_abbrev  0x00000000000072cd      0x148 C:\CSDTK4\/mips-elf-4.4.2/lib/gcc/mips-elf/4.4.2/libgcc.a(_si_to_df.o)
 .debug_abbrev  0x0000000000007415      0x17f C:\CSDTK4\/mips-elf-4.4.2/lib/gcc/mips-elf/4.4.2/libgcc.a(_df_to_si.o)
 .debug_abbrev  0x0000000000007594      0x109 C:\CSDTK4\/mips-elf-4.4.2/lib/gcc/mips-elf/4.4.2/libgcc.a(_make_df.o)
 .debug_abbrev  0x000000000000769d      0x140 C:\CSDTK4\/mips-elf-4.4.2/lib/gcc/mips-elf/4.4.2/libgcc.a(_df_to_sf.o)
 .debug_abbrev  0x00000000000077dd       0xc3 C:\CSDTK4\/mips-elf-4.4.2/lib/gcc/mips-elf/4.4.2/libgcc.a(_thenan_df.o)
 .debug_abbrev  0x00000000000078a0      0x104 C:\CSDTK4\/mips-elf-4.4.2/lib/gcc/mips-elf/4.4.2/libgcc.a(_lshrdi3.o)
 .debug_abbrev  0x00000000000079a4       0xf7 C:\CSDTK4\/mips-elf-4.4.2/lib/gcc/mips-elf/4.4.2/libgcc.a(_ashldi3.o)
 .debug_abbrev  0x0000000000007a9b       0xd0 C:\CSDTK4\/mips-elf-4.4.2/lib/gcc/mips-elf/4.4.2/libgcc.a(_ucmpdi2.o)
 .debug_abbrev  0x0000000000007b6b       0xc4 C:\CSDTK4\/mips-elf-4.4.2/lib/gcc/mips-elf/4.4.2/libgcc.a(_clzsi2.o)
 .debug_abbrev  0x0000000000007c2f      0x1c0 C:\CSDTK4\/mips-elf-4.4.2/lib/gcc/mips-elf/4.4.2/libgcc.a(_pack_sf.o)
 .debug_abbrev  0x0000000000007def      0x163 C:\CSDTK4\/mips-elf-4.4.2/lib/gcc/mips-elf/4.4.2/libgcc.a(_unpack_sf.o)
 .debug_abbrev  0x0000000000007f52      0x109 C:\CSDTK4\/mips-elf-4.4.2/lib/gcc/mips-elf/4.4.2/libgcc.a(_make_sf.o)
 .debug_abbrev  0x000000000000805b      0x1c0 C:\CSDTK4\/mips-elf-4.4.2/lib/gcc/mips-elf/4.4.2/libgcc.a(_pack_df.o)
 .debug_abbrev  0x000000000000821b      0x163 C:\CSDTK4\/mips-elf-4.4.2/lib/gcc/mips-elf/4.4.2/libgcc.a(_unpack_df.o)
 .debug_abbrev  0x000000000000837e      0x14a C:\CSDTK4\/mips-elf-4.4.2/lib/gcc/mips-elf/4.4.2/libgcc.a(_fpcmp_parts_df.o)
 .debug_abbrev  0x00000000000084c8       0x6a C:\CSDTK4\/mips-elf-4.4.2/lib/gcc/mips-elf/4.4.2/libgcc.a(_clz.o)

.debug_info     0x0000000000000000    0x24ae0
 .debug_info    0x0000000000000000      0x316 build/gcc/obj/custom/config/custom_sys_cfg.o
 .debug_info    0x0000000000000316      0x2a4 build/gcc/obj/custom/config/sys_config.o
 .debug_info    0x00000000000005ba      0x9e0 build/gcc/obj/ril/src/ril_audio.o
 .debug_info    0x0000000000000f9a      0x109 build/gcc/obj/ril/src/ril_custom.o
 .debug_info    0x00000000000010a3      0x4a0 build/gcc/obj/ril/src/ril_http.o
 .debug_info    0x0000000000001543      0xe17 build/gcc/obj/ril/src/ril_urc.o
 .debug_info    0x000000000000235a      0x175 build/gcc/obj/ril/src/ril_atResponse.o
 .debug_info    0x00000000000024cf      0x88e build/gcc/obj/ril/src/ril_network.o
 .debug_info    0x0000000000002d5d      0x43c build/gcc/obj/ril/src/ril_location.o
 .debug_info    0x0000000000003199      0x1f8 build/gcc/obj/ril/src/ril_ntp.o
 .debug_info    0x0000000000003391      0x30c build/gcc/obj/ril/src/ril_telephony.o
 .debug_info    0x000000000000369d     0x1955 build/gcc/obj/ril/src/ril_sms.o
 .debug_info    0x0000000000004ff2      0x424 build/gcc/obj/ril/src/ril_system.o
 .debug_info    0x0000000000005416      0x547 build/gcc/obj/ril/src/Ril_dtmf.o
 .debug_info    0x000000000000595d      0x46e build/gcc/obj/ril/src/ril_sim.o
 .debug_info    0x0000000000005dcb      0x56f build/gcc/obj/ril/src/ril_location2.o
 .debug_info    0x000000000000633a      0x9f8 build/gcc/obj/ril/src/ril_gnss.o
 .debug_info    0x0000000000006d32       0xf4 build/gcc/obj/ril/src/ril_init.o
 .debug_info    0x0000000000006e26      0xbc1 build/gcc/obj/ril/src/ril_ftp.o
 .debug_info    0x00000000000079e7      0x5ba build/gcc/obj/ril/src/ril_alarm.o
 .debug_info    0x0000000000007fa1      0x33c build/gcc/obj/ril/src/ril_util.o
 .debug_info    0x00000000000082dd      0x7b8 build/gcc/obj/ril/src/ril_mqtt.o
 .debug_info    0x0000000000008a95     0x28e4 build/gcc/obj/custom/main.o
 .debug_info    0x000000000000b379      0x394 build/gcc/obj/custom/dfota/src/dfota_main.o
 .debug_info    0x000000000000b70d      0xe55 build/gcc/obj/custom/dfota/src/tracker_functions.o
 .debug_info    0x000000000000c562      0x2a0 build/gcc/obj/custom/dfota/src/gnss_parser.o
 .debug_info    0x000000000000c802      0x95a build/gcc/obj/custom/dfota/src/dfota_ftp.o
 .debug_info    0x000000000000d15c      0x961 build/gcc/obj/custom/dfota/src/dfota_http_code.o
 .debug_info    0x000000000000dabd      0xe23 build/gcc/obj/custom/dfota/src/dfota_http.o
 .debug_info    0x000000000000e8e0      0x28a build/gcc/obj/custom/dfota/src/json_parser.o
 .debug_info    0x000000000000eb6a     0x2c8a build/gcc/obj/custom/dfota/src/sms_command.o
 .debug_info    0x00000000000117f4       0xc9 libs/gcc/fplibm.lib(s_cos.o)
 .debug_info    0x00000000000118bd       0xc9 libs/gcc/fplibm.lib(s_sin.o)
 .debug_info    0x0000000000011986       0x88 libs/gcc/fplibm.lib(w_atan2.o)
 .debug_info    0x0000000000011a0e       0x7b libs/gcc/fplibm.lib(w_sqrt.o)
 .debug_info    0x0000000000011a89      0x22d libs/gcc/fplibm.lib(e_atan2.o)
 .debug_info    0x0000000000011cb6      0x2fc libs/gcc/fplibm.lib(e_rem_pio2.o)
 .debug_info    0x0000000000011fb2      0x1e8 libs/gcc/fplibm.lib(e_sqrt.o)
 .debug_info    0x000000000001219a      0x1dd libs/gcc/fplibm.lib(k_cos.o)
 .debug_info    0x0000000000012377      0x29b libs/gcc/fplibm.lib(k_rem_pio2.o)
 .debug_info    0x0000000000012612      0x161 libs/gcc/fplibm.lib(k_sin.o)
 .debug_info    0x0000000000012773      0x25c libs/gcc/fplibm.lib(s_atan.o)
 .debug_info    0x00000000000129cf      0x170 libs/gcc/fplibm.lib(s_floor.o)
 .debug_info    0x0000000000012b3f      0x1b5 libs/gcc/fplibm.lib(s_scalbn.o)
 .debug_info    0x0000000000012cf4      0x549 libs/gcc/app_start.lib(adc.o)
 .debug_info    0x000000000001323d      0x5be libs/gcc/app_start.lib(timer.o)
 .debug_info    0x00000000000137fb      0x997 libs/gcc/app_start.lib(gprs.o)
 .debug_info    0x0000000000014192      0x999 libs/gcc/app_start.lib(ql_func.o)
 .debug_info    0x0000000000014b2b      0xacc libs/gcc/app_start.lib(taskMngt.o)
 .debug_info    0x00000000000155f7      0x63b libs/gcc/app_start.lib(fota.o)
 .debug_info    0x0000000000015c32      0x882 libs/gcc/app_start.lib(ql_main.o)
 .debug_info    0x00000000000164b4      0x1e4 libs/gcc/app_start.lib(memory.o)
 .debug_info    0x0000000000016698      0xc9f libs/gcc/app_start.lib(ril_main.o)
 .debug_info    0x0000000000017337      0x16d libs/gcc/app_start.lib(ril_aux.o)
 .debug_info    0x00000000000174a4      0x83d libs/gcc/app_start.lib(gpio.o)
 .debug_info    0x0000000000017ce1       0xf7 libs/gcc/app_start.lib(ocpi_init.o)
 .debug_info    0x0000000000017dd8     0x10d1 libs/gcc/app_start.lib(fileSys.o)
 .debug_info    0x0000000000018ea9      0x731 libs/gcc/app_start.lib(power.o)
 .debug_info    0x00000000000195da     0x2c68 libs/gcc/app_start.lib(lib_ril_sms.o)
 .debug_info    0x000000000001c242      0xf1b libs/gcc/app_start.lib(stdlib_func.o)
 .debug_info    0x000000000001d15d      0x693 libs/gcc/app_start.lib(system.o)
 .debug_info    0x000000000001d7f0      0xe97 libs/gcc/app_start.lib(uart.o)
 .debug_info    0x000000000001e687      0x821 libs/gcc/app_start.lib(watchdog.o)
 .debug_info    0x000000000001eea8      0x5bc libs/gcc/app_start.lib(time.o)
 .debug_info    0x000000000001f464     0x100e libs/gcc/app_start.lib(socket.o)
 .debug_info    0x0000000000020472       0xd1 C:\CSDTK4\/mips-elf-4.4.2/lib/gcc/mips-elf/4.4.2/libgcc.a(_fixunsdfsi.o)
 .debug_info    0x0000000000020543      0x483 C:\CSDTK4\/mips-elf-4.4.2/lib/gcc/mips-elf/4.4.2/libgcc.a(_addsub_sf.o)
 .debug_info    0x00000000000209c6      0x3cc C:\CSDTK4\/mips-elf-4.4.2/lib/gcc/mips-elf/4.4.2/libgcc.a(_mul_sf.o)
 .debug_info    0x0000000000020d92      0x390 C:\CSDTK4\/mips-elf-4.4.2/lib/gcc/mips-elf/4.4.2/libgcc.a(_div_sf.o)
 .debug_info    0x0000000000021122      0x241 C:\CSDTK4\/mips-elf-4.4.2/lib/gcc/mips-elf/4.4.2/libgcc.a(_sf_to_df.o)
 .debug_info    0x0000000000021363      0x160 C:\CSDTK4\/mips-elf-4.4.2/lib/gcc/mips-elf/4.4.2/libgcc.a(_thenan_sf.o)
 .debug_info    0x00000000000214c3      0x213 C:\CSDTK4\/mips-elf-4.4.2/lib/gcc/mips-elf/4.4.2/libgcc.a(_usi_to_sf.o)
 .debug_info    0x00000000000216d6      0x48e C:\CSDTK4\/mips-elf-4.4.2/lib/gcc/mips-elf/4.4.2/libgcc.a(_addsub_df.o)
 .debug_info    0x0000000000021b64      0x47e C:\CSDTK4\/mips-elf-4.4.2/lib/gcc/mips-elf/4.4.2/libgcc.a(_mul_df.o)
 .debug_info    0x0000000000021fe2      0x39e C:\CSDTK4\/mips-elf-4.4.2/lib/gcc/mips-elf/4.4.2/libgcc.a(_div_df.o)
 .debug_info    0x0000000000022380      0x29a C:\CSDTK4\/mips-elf-4.4.2/lib/gcc/mips-elf/4.4.2/libgcc.a(_eq_df.o)
 .debug_info    0x000000000002261a      0x29a C:\CSDTK4\/mips-elf-4.4.2/lib/gcc/mips-elf/4.4.2/libgcc.a(_gt_df.o)
 .debug_info    0x00000000000228b4      0x29a C:\CSDTK4\/mips-elf-4.4.2/lib/gcc/mips-elf/4.4.2/libgcc.a(_ge_df.o)
 .debug_info    0x0000000000022b4e      0x214 C:\CSDTK4\/mips-elf-4.4.2/lib/gcc/mips-elf/4.4.2/libgcc.a(_si_to_df.o)
 .debug_info    0x0000000000022d62      0x2c9 C:\CSDTK4\/mips-elf-4.4.2/lib/gcc/mips-elf/4.4.2/libgcc.a(_df_to_si.o)
 .debug_info    0x000000000002302b      0x1d3 C:\CSDTK4\/mips-elf-4.4.2/lib/gcc/mips-elf/4.4.2/libgcc.a(_make_df.o)
 .debug_info    0x00000000000231fe      0x25d C:\CSDTK4\/mips-elf-4.4.2/lib/gcc/mips-elf/4.4.2/libgcc.a(_df_to_sf.o)
 .debug_info    0x000000000002345b      0x160 C:\CSDTK4\/mips-elf-4.4.2/lib/gcc/mips-elf/4.4.2/libgcc.a(_thenan_df.o)
 .debug_info    0x00000000000235bb      0x19b C:\CSDTK4\/mips-elf-4.4.2/lib/gcc/mips-elf/4.4.2/libgcc.a(_lshrdi3.o)
 .debug_info    0x0000000000023756      0x19f C:\CSDTK4\/mips-elf-4.4.2/lib/gcc/mips-elf/4.4.2/libgcc.a(_ashldi3.o)
 .debug_info    0x00000000000238f5      0x160 C:\CSDTK4\/mips-elf-4.4.2/lib/gcc/mips-elf/4.4.2/libgcc.a(_ucmpdi2.o)
 .debug_info    0x0000000000023a55      0x132 C:\CSDTK4\/mips-elf-4.4.2/lib/gcc/mips-elf/4.4.2/libgcc.a(_clzsi2.o)
 .debug_info    0x0000000000023b87      0x2ea C:\CSDTK4\/mips-elf-4.4.2/lib/gcc/mips-elf/4.4.2/libgcc.a(_pack_sf.o)
 .debug_info    0x0000000000023e71      0x25a C:\CSDTK4\/mips-elf-4.4.2/lib/gcc/mips-elf/4.4.2/libgcc.a(_unpack_sf.o)
 .debug_info    0x00000000000240cb      0x1d3 C:\CSDTK4\/mips-elf-4.4.2/lib/gcc/mips-elf/4.4.2/libgcc.a(_make_sf.o)
 .debug_info    0x000000000002429e      0x2f8 C:\CSDTK4\/mips-elf-4.4.2/lib/gcc/mips-elf/4.4.2/libgcc.a(_pack_df.o)
 .debug_info    0x0000000000024596      0x266 C:\CSDTK4\/mips-elf-4.4.2/lib/gcc/mips-elf/4.4.2/libgcc.a(_unpack_df.o)
 .debug_info    0x00000000000247fc      0x21f C:\CSDTK4\/mips-elf-4.4.2/lib/gcc/mips-elf/4.4.2/libgcc.a(_fpcmp_parts_df.o)
 .debug_info    0x0000000000024a1b       0xc5 C:\CSDTK4\/mips-elf-4.4.2/lib/gcc/mips-elf/4.4.2/libgcc.a(_clz.o)

.debug_line     0x0000000000000000     0x7fb9
 .debug_line    0x0000000000000000       0x8f build/gcc/obj/custom/config/custom_sys_cfg.o
 .debug_line    0x000000000000008f       0x7b build/gcc/obj/custom/config/sys_config.o
 .debug_line    0x000000000000010a      0x223 build/gcc/obj/ril/src/ril_audio.o
 .debug_line    0x000000000000032d       0x6e build/gcc/obj/ril/src/ril_custom.o
 .debug_line    0x000000000000039b      0x158 build/gcc/obj/ril/src/ril_http.o
 .debug_line    0x00000000000004f3      0x3d5 build/gcc/obj/ril/src/ril_urc.o
 .debug_line    0x00000000000008c8       0xad build/gcc/obj/ril/src/ril_atResponse.o
 .debug_line    0x0000000000000975      0x27d build/gcc/obj/ril/src/ril_network.o
 .debug_line    0x0000000000000bf2      0x135 build/gcc/obj/ril/src/ril_location.o
 .debug_line    0x0000000000000d27       0xa4 build/gcc/obj/ril/src/ril_ntp.o
 .debug_line    0x0000000000000dcb      0x10a build/gcc/obj/ril/src/ril_telephony.o
 .debug_line    0x0000000000000ed5      0x40a build/gcc/obj/ril/src/ril_sms.o
 .debug_line    0x00000000000012df      0x141 build/gcc/obj/ril/src/ril_system.o
 .debug_line    0x0000000000001420      0x157 build/gcc/obj/ril/src/Ril_dtmf.o
 .debug_line    0x0000000000001577      0x14c build/gcc/obj/ril/src/ril_sim.o
 .debug_line    0x00000000000016c3      0x169 build/gcc/obj/ril/src/ril_location2.o
 .debug_line    0x000000000000182c      0x23f build/gcc/obj/ril/src/ril_gnss.o
 .debug_line    0x0000000000001a6b       0x69 build/gcc/obj/ril/src/ril_init.o
 .debug_line    0x0000000000001ad4      0x2ca build/gcc/obj/ril/src/ril_ftp.o
 .debug_line    0x0000000000001d9e      0x11e build/gcc/obj/ril/src/ril_alarm.o
 .debug_line    0x0000000000001ebc      0x154 build/gcc/obj/ril/src/ril_util.o
 .debug_line    0x0000000000002010      0x1f9 build/gcc/obj/ril/src/ril_mqtt.o
 .debug_line    0x0000000000002209      0x8c1 build/gcc/obj/custom/main.o
 .debug_line    0x0000000000002aca       0xee build/gcc/obj/custom/dfota/src/dfota_main.o
 .debug_line    0x0000000000002bb8      0x22f build/gcc/obj/custom/dfota/src/tracker_functions.o
 .debug_line    0x0000000000002de7       0xbf build/gcc/obj/custom/dfota/src/gnss_parser.o
 .debug_line    0x0000000000002ea6      0x227 build/gcc/obj/custom/dfota/src/dfota_ftp.o
 .debug_line    0x00000000000030cd      0x215 build/gcc/obj/custom/dfota/src/dfota_http_code.o
 .debug_line    0x00000000000032e2      0x392 build/gcc/obj/custom/dfota/src/dfota_http.o
 .debug_line    0x0000000000003674       0xdd build/gcc/obj/custom/dfota/src/json_parser.o
 .debug_line    0x0000000000003751      0x7ff build/gcc/obj/custom/dfota/src/sms_command.o
 .debug_line    0x0000000000003f50       0x71 libs/gcc/fplibm.lib(s_cos.o)
 .debug_line    0x0000000000003fc1       0x70 libs/gcc/fplibm.lib(s_sin.o)
 .debug_line    0x0000000000004031       0x48 libs/gcc/fplibm.lib(w_atan2.o)
 .debug_line    0x0000000000004079       0x47 libs/gcc/fplibm.lib(w_sqrt.o)
 .debug_line    0x00000000000040c0       0x96 libs/gcc/fplibm.lib(e_atan2.o)
 .debug_line    0x0000000000004156       0xe3 libs/gcc/fplibm.lib(e_rem_pio2.o)
 .debug_line    0x0000000000004239       0xc6 libs/gcc/fplibm.lib(e_sqrt.o)
 .debug_line    0x00000000000042ff       0x7b libs/gcc/fplibm.lib(k_cos.o)
 .debug_line    0x000000000000437a      0x133 libs/gcc/fplibm.lib(k_rem_pio2.o)
 .debug_line    0x00000000000044ad       0x75 libs/gcc/fplibm.lib(k_sin.o)
 .debug_line    0x0000000000004522       0x90 libs/gcc/fplibm.lib(s_atan.o)
 .debug_line    0x00000000000045b2       0x81 libs/gcc/fplibm.lib(s_floor.o)
 .debug_line    0x0000000000004633       0x81 libs/gcc/fplibm.lib(s_scalbn.o)
 .debug_line    0x00000000000046b4       0xd0 libs/gcc/app_start.lib(adc.o)
 .debug_line    0x0000000000004784       0xeb libs/gcc/app_start.lib(timer.o)
 .debug_line    0x000000000000486f      0x18e libs/gcc/app_start.lib(gprs.o)
 .debug_line    0x00000000000049fd      0x183 libs/gcc/app_start.lib(ql_func.o)
 .debug_line    0x0000000000004b80      0x20b libs/gcc/app_start.lib(taskMngt.o)
 .debug_line    0x0000000000004d8b       0xfe libs/gcc/app_start.lib(fota.o)
 .debug_line    0x0000000000004e89      0x1b6 libs/gcc/app_start.lib(ql_main.o)
 .debug_line    0x000000000000503f       0xb2 libs/gcc/app_start.lib(memory.o)
 .debug_line    0x00000000000050f1      0x2cb libs/gcc/app_start.lib(ril_main.o)
 .debug_line    0x00000000000053bc       0x72 libs/gcc/app_start.lib(ril_aux.o)
 .debug_line    0x000000000000542e      0x14b libs/gcc/app_start.lib(gpio.o)
 .debug_line    0x0000000000005579       0x68 libs/gcc/app_start.lib(ocpi_init.o)
 .debug_line    0x00000000000055e1      0x2f6 libs/gcc/app_start.lib(fileSys.o)
 .debug_line    0x00000000000058d7      0x15b libs/gcc/app_start.lib(power.o)
 .debug_line    0x0000000000005a32      0x66f libs/gcc/app_start.lib(lib_ril_sms.o)
 .debug_line    0x00000000000060a1      0x306 libs/gcc/app_start.lib(stdlib_func.o)
 .debug_line    0x00000000000063a7      0x13b libs/gcc/app_start.lib(system.o)
 .debug_line    0x00000000000064e2      0x246 libs/gcc/app_start.lib(uart.o)
 .debug_line    0x0000000000006728      0x1cd libs/gcc/app_start.lib(watchdog.o)
 .debug_line    0x00000000000068f5       0xea libs/gcc/app_start.lib(time.o)
 .debug_line    0x00000000000069df      0x25a libs/gcc/app_start.lib(socket.o)
 .debug_line    0x0000000000006c39       0x7f C:\CSDTK4\/mips-elf-4.4.2/lib/gcc/mips-elf/4.4.2/libgcc.a(_fixunsdfsi.o)
 .debug_line    0x0000000000006cb8      0x113 C:\CSDTK4\/mips-elf-4.4.2/lib/gcc/mips-elf/4.4.2/libgcc.a(_addsub_sf.o)
 .debug_line    0x0000000000006dcb       0xeb C:\CSDTK4\/mips-elf-4.4.2/lib/gcc/mips-elf/4.4.2/libgcc.a(_mul_sf.o)
 .debug_line    0x0000000000006eb6       0xd3 C:\CSDTK4\/mips-elf-4.4.2/lib/gcc/mips-elf/4.4.2/libgcc.a(_div_sf.o)
 .debug_line    0x0000000000006f89       0x8f C:\CSDTK4\/mips-elf-4.4.2/lib/gcc/mips-elf/4.4.2/libgcc.a(_sf_to_df.o)
 .debug_line    0x0000000000007018       0x78 C:\CSDTK4\/mips-elf-4.4.2/lib/gcc/mips-elf/4.4.2/libgcc.a(_thenan_sf.o)
 .debug_line    0x0000000000007090       0xaf C:\CSDTK4\/mips-elf-4.4.2/lib/gcc/mips-elf/4.4.2/libgcc.a(_usi_to_sf.o)
 .debug_line    0x000000000000713f      0x12a C:\CSDTK4\/mips-elf-4.4.2/lib/gcc/mips-elf/4.4.2/libgcc.a(_addsub_df.o)
 .debug_line    0x0000000000007269       0xf9 C:\CSDTK4\/mips-elf-4.4.2/lib/gcc/mips-elf/4.4.2/libgcc.a(_mul_df.o)
 .debug_line    0x0000000000007362       0xe3 C:\CSDTK4\/mips-elf-4.4.2/lib/gcc/mips-elf/4.4.2/libgcc.a(_div_df.o)
 .debug_line    0x0000000000007445       0x98 C:\CSDTK4\/mips-elf-4.4.2/lib/gcc/mips-elf/4.4.2/libgcc.a(_eq_df.o)
 .debug_line    0x00000000000074dd       0x98 C:\CSDTK4\/mips-elf-4.4.2/lib/gcc/mips-elf/4.4.2/libgcc.a(_gt_df.o)
 .debug_line    0x0000000000007575       0x98 C:\CSDTK4\/mips-elf-4.4.2/lib/gcc/mips-elf/4.4.2/libgcc.a(_ge_df.o)
 .debug_line    0x000000000000760d       0xb4 C:\CSDTK4\/mips-elf-4.4.2/lib/gcc/mips-elf/4.4.2/libgcc.a(_si_to_df.o)
 .debug_line    0x00000000000076c1       0x9e C:\CSDTK4\/mips-elf-4.4.2/lib/gcc/mips-elf/4.4.2/libgcc.a(_df_to_si.o)
 .debug_line    0x000000000000775f       0x93 C:\CSDTK4\/mips-elf-4.4.2/lib/gcc/mips-elf/4.4.2/libgcc.a(_make_df.o)
 .debug_line    0x00000000000077f2       0x97 C:\CSDTK4\/mips-elf-4.4.2/lib/gcc/mips-elf/4.4.2/libgcc.a(_df_to_sf.o)
 .debug_line    0x0000000000007889       0x78 C:\CSDTK4\/mips-elf-4.4.2/lib/gcc/mips-elf/4.4.2/libgcc.a(_thenan_df.o)
 .debug_line    0x0000000000007901       0x86 C:\CSDTK4\/mips-elf-4.4.2/lib/gcc/mips-elf/4.4.2/libgcc.a(_lshrdi3.o)
 .debug_line    0x0000000000007987       0x88 C:\CSDTK4\/mips-elf-4.4.2/lib/gcc/mips-elf/4.4.2/libgcc.a(_ashldi3.o)
 .debug_line    0x0000000000007a0f       0x7e C:\CSDTK4\/mips-elf-4.4.2/lib/gcc/mips-elf/4.4.2/libgcc.a(_ucmpdi2.o)
 .debug_line    0x0000000000007a8d       0x88 C:\CSDTK4\/mips-elf-4.4.2/lib/gcc/mips-elf/4.4.2/libgcc.a(_clzsi2.o)
 .debug_line    0x0000000000007b15       0xc9 C:\CSDTK4\/mips-elf-4.4.2/lib/gcc/mips-elf/4.4.2/libgcc.a(_pack_sf.o)
 .debug_line    0x0000000000007bde       0xba C:\CSDTK4\/mips-elf-4.4.2/lib/gcc/mips-elf/4.4.2/libgcc.a(_unpack_sf.o)
 .debug_line    0x0000000000007c98       0x91 C:\CSDTK4\/mips-elf-4.4.2/lib/gcc/mips-elf/4.4.2/libgcc.a(_make_sf.o)
 .debug_line    0x0000000000007d29       0xce C:\CSDTK4\/mips-elf-4.4.2/lib/gcc/mips-elf/4.4.2/libgcc.a(_pack_df.o)
 .debug_line    0x0000000000007df7       0xb2 C:\CSDTK4\/mips-elf-4.4.2/lib/gcc/mips-elf/4.4.2/libgcc.a(_unpack_df.o)
 .debug_line    0x0000000000007ea9       0xa9 C:\CSDTK4\/mips-elf-4.4.2/lib/gcc/mips-elf/4.4.2/libgcc.a(_fpcmp_parts_df.o)
 .debug_line    0x0000000000007f52       0x67 C:\CSDTK4\/mips-elf-4.4.2/lib/gcc/mips-elf/4.4.2/libgcc.a(_clz.o)

.debug_frame    0x0000000000000000     0x426c
 .debug_frame   0x0000000000000000       0x20 build/gcc/obj/custom/config/custom_sys_cfg.o
 .debug_frame   0x0000000000000020      0x1d0 build/gcc/obj/ril/src/ril_audio.o
 .debug_frame   0x00000000000001f0       0x28 build/gcc/obj/ril/src/ril_custom.o
 .debug_frame   0x0000000000000218       0xc0 build/gcc/obj/ril/src/ril_http.o
 .debug_frame   0x00000000000002d8      0x2b8 build/gcc/obj/ril/src/ril_urc.o
 .debug_frame   0x0000000000000590       0x50 build/gcc/obj/ril/src/ril_atResponse.o
 .debug_frame   0x00000000000005e0      0x214 build/gcc/obj/ril/src/ril_network.o
 .debug_frame   0x00000000000007f4       0xb0 build/gcc/obj/ril/src/ril_location.o
 .debug_frame   0x00000000000008a4       0x50 build/gcc/obj/ril/src/ril_ntp.o
 .debug_frame   0x00000000000008f4       0xa0 build/gcc/obj/ril/src/ril_telephony.o
 .debug_frame   0x0000000000000994      0x1d8 build/gcc/obj/ril/src/ril_sms.o
 .debug_frame   0x0000000000000b6c       0xe8 build/gcc/obj/ril/src/ril_system.o
 .debug_frame   0x0000000000000c54      0x108 build/gcc/obj/ril/src/Ril_dtmf.o
 .debug_frame   0x0000000000000d5c       0xf0 build/gcc/obj/ril/src/ril_sim.o
 .debug_frame   0x0000000000000e4c       0xac build/gcc/obj/ril/src/ril_location2.o
 .debug_frame   0x0000000000000ef8      0x1cc build/gcc/obj/ril/src/ril_gnss.o
 .debug_frame   0x00000000000010c4       0x30 build/gcc/obj/ril/src/ril_init.o
 .debug_frame   0x00000000000010f4      0x244 build/gcc/obj/ril/src/ril_ftp.o
 .debug_frame   0x0000000000001338       0x90 build/gcc/obj/ril/src/ril_alarm.o
 .debug_frame   0x00000000000013c8       0xb0 build/gcc/obj/ril/src/ril_util.o
 .debug_frame   0x0000000000001478      0x190 build/gcc/obj/ril/src/ril_mqtt.o
 .debug_frame   0x0000000000001608      0x26c build/gcc/obj/custom/main.o
 .debug_frame   0x0000000000001874       0x48 build/gcc/obj/custom/dfota/src/dfota_main.o
 .debug_frame   0x00000000000018bc      0x14c build/gcc/obj/custom/dfota/src/tracker_functions.o
 .debug_frame   0x0000000000001a08       0x50 build/gcc/obj/custom/dfota/src/gnss_parser.o
 .debug_frame   0x0000000000001a58       0x70 build/gcc/obj/custom/dfota/src/dfota_ftp.o
 .debug_frame   0x0000000000001ac8       0x9c build/gcc/obj/custom/dfota/src/dfota_http_code.o
 .debug_frame   0x0000000000001b64      0x1b8 build/gcc/obj/custom/dfota/src/dfota_http.o
 .debug_frame   0x0000000000001d1c       0x80 build/gcc/obj/custom/dfota/src/json_parser.o
 .debug_frame   0x0000000000001d9c      0x38c build/gcc/obj/custom/dfota/src/sms_command.o
 .debug_frame   0x0000000000002128       0x28 libs/gcc/fplibm.lib(s_cos.o)
 .debug_frame   0x0000000000002150       0x28 libs/gcc/fplibm.lib(s_sin.o)
 .debug_frame   0x0000000000002178       0x28 libs/gcc/fplibm.lib(w_atan2.o)
 .debug_frame   0x00000000000021a0       0x28 libs/gcc/fplibm.lib(w_sqrt.o)
 .debug_frame   0x00000000000021c8       0x30 libs/gcc/fplibm.lib(e_atan2.o)
 .debug_frame   0x00000000000021f8       0x30 libs/gcc/fplibm.lib(e_rem_pio2.o)
 .debug_frame   0x0000000000002228       0x30 libs/gcc/fplibm.lib(e_sqrt.o)
 .debug_frame   0x0000000000002258       0x30 libs/gcc/fplibm.lib(k_cos.o)
 .debug_frame   0x0000000000002288       0x30 libs/gcc/fplibm.lib(k_rem_pio2.o)
 .debug_frame   0x00000000000022b8       0x30 libs/gcc/fplibm.lib(k_sin.o)
 .debug_frame   0x00000000000022e8       0x30 libs/gcc/fplibm.lib(s_atan.o)
 .debug_frame   0x0000000000002318       0x30 libs/gcc/fplibm.lib(s_floor.o)
 .debug_frame   0x0000000000002348       0x2c libs/gcc/fplibm.lib(s_scalbn.o)
 .debug_frame   0x0000000000002374       0x70 libs/gcc/app_start.lib(adc.o)
 .debug_frame   0x00000000000023e4       0x90 libs/gcc/app_start.lib(timer.o)
 .debug_frame   0x0000000000002474      0x168 libs/gcc/app_start.lib(gprs.o)
 .debug_frame   0x00000000000025dc      0x140 libs/gcc/app_start.lib(ql_func.o)
 .debug_frame   0x000000000000271c      0x200 libs/gcc/app_start.lib(taskMngt.o)
 .debug_frame   0x000000000000291c       0xa8 libs/gcc/app_start.lib(fota.o)
 .debug_frame   0x00000000000029c4       0x84 libs/gcc/app_start.lib(ql_main.o)
 .debug_frame   0x0000000000002a48       0x50 libs/gcc/app_start.lib(memory.o)
 .debug_frame   0x0000000000002a98      0x1a0 libs/gcc/app_start.lib(ril_main.o)
 .debug_frame   0x0000000000002c38       0x28 libs/gcc/app_start.lib(ril_aux.o)
 .debug_frame   0x0000000000002c60      0x110 libs/gcc/app_start.lib(gpio.o)
 .debug_frame   0x0000000000002d70       0x20 libs/gcc/app_start.lib(ocpi_init.o)
 .debug_frame   0x0000000000002d90      0x350 libs/gcc/app_start.lib(fileSys.o)
 .debug_frame   0x00000000000030e0      0x110 libs/gcc/app_start.lib(power.o)
 .debug_frame   0x00000000000031f0      0x1d8 libs/gcc/app_start.lib(lib_ril_sms.o)
 .debug_frame   0x00000000000033c8      0x298 libs/gcc/app_start.lib(stdlib_func.o)
 .debug_frame   0x0000000000003660       0xec libs/gcc/app_start.lib(system.o)
 .debug_frame   0x000000000000374c      0x230 libs/gcc/app_start.lib(uart.o)
 .debug_frame   0x000000000000397c      0x11c libs/gcc/app_start.lib(watchdog.o)
 .debug_frame   0x0000000000003a98       0x90 libs/gcc/app_start.lib(time.o)
 .debug_frame   0x0000000000003b28      0x26c libs/gcc/app_start.lib(socket.o)
 .debug_frame   0x0000000000003d94       0x30 C:\CSDTK4\/mips-elf-4.4.2/lib/gcc/mips-elf/4.4.2/libgcc.a(_fixunsdfsi.o)
 .debug_frame   0x0000000000003dc4       0x70 C:\CSDTK4\/mips-elf-4.4.2/lib/gcc/mips-elf/4.4.2/libgcc.a(_addsub_sf.o)
 .debug_frame   0x0000000000003e34       0x28 C:\CSDTK4\/mips-elf-4.4.2/lib/gcc/mips-elf/4.4.2/libgcc.a(_mul_sf.o)
 .debug_frame   0x0000000000003e5c       0x30 C:\CSDTK4\/mips-elf-4.4.2/lib/gcc/mips-elf/4.4.2/libgcc.a(_div_sf.o)
 .debug_frame   0x0000000000003e8c       0x28 C:\CSDTK4\/mips-elf-4.4.2/lib/gcc/mips-elf/4.4.2/libgcc.a(_sf_to_df.o)
 .debug_frame   0x0000000000003eb4       0x30 C:\CSDTK4\/mips-elf-4.4.2/lib/gcc/mips-elf/4.4.2/libgcc.a(_usi_to_sf.o)
 .debug_frame   0x0000000000003ee4       0x70 C:\CSDTK4\/mips-elf-4.4.2/lib/gcc/mips-elf/4.4.2/libgcc.a(_addsub_df.o)
 .debug_frame   0x0000000000003f54       0x30 C:\CSDTK4\/mips-elf-4.4.2/lib/gcc/mips-elf/4.4.2/libgcc.a(_mul_df.o)
 .debug_frame   0x0000000000003f84       0x30 C:\CSDTK4\/mips-elf-4.4.2/lib/gcc/mips-elf/4.4.2/libgcc.a(_div_df.o)
 .debug_frame   0x0000000000003fb4       0x30 C:\CSDTK4\/mips-elf-4.4.2/lib/gcc/mips-elf/4.4.2/libgcc.a(_eq_df.o)
 .debug_frame   0x0000000000003fe4       0x30 C:\CSDTK4\/mips-elf-4.4.2/lib/gcc/mips-elf/4.4.2/libgcc.a(_gt_df.o)
 .debug_frame   0x0000000000004014       0x30 C:\CSDTK4\/mips-elf-4.4.2/lib/gcc/mips-elf/4.4.2/libgcc.a(_ge_df.o)
 .debug_frame   0x0000000000004044       0x30 C:\CSDTK4\/mips-elf-4.4.2/lib/gcc/mips-elf/4.4.2/libgcc.a(_si_to_df.o)
 .debug_frame   0x0000000000004074       0x2c C:\CSDTK4\/mips-elf-4.4.2/lib/gcc/mips-elf/4.4.2/libgcc.a(_df_to_si.o)
 .debug_frame   0x00000000000040a0       0x28 C:\CSDTK4\/mips-elf-4.4.2/lib/gcc/mips-elf/4.4.2/libgcc.a(_make_df.o)
 .debug_frame   0x00000000000040c8       0x28 C:\CSDTK4\/mips-elf-4.4.2/lib/gcc/mips-elf/4.4.2/libgcc.a(_df_to_sf.o)
 .debug_frame   0x00000000000040f0       0x2c C:\CSDTK4\/mips-elf-4.4.2/lib/gcc/mips-elf/4.4.2/libgcc.a(_lshrdi3.o)
 .debug_frame   0x000000000000411c       0x2c C:\CSDTK4\/mips-elf-4.4.2/lib/gcc/mips-elf/4.4.2/libgcc.a(_ashldi3.o)
 .debug_frame   0x0000000000004148       0x2c C:\CSDTK4\/mips-elf-4.4.2/lib/gcc/mips-elf/4.4.2/libgcc.a(_ucmpdi2.o)
 .debug_frame   0x0000000000004174       0x20 C:\CSDTK4\/mips-elf-4.4.2/lib/gcc/mips-elf/4.4.2/libgcc.a(_clzsi2.o)
 .debug_frame   0x0000000000004194       0x20 C:\CSDTK4\/mips-elf-4.4.2/lib/gcc/mips-elf/4.4.2/libgcc.a(_pack_sf.o)
 .debug_frame   0x00000000000041b4       0x20 C:\CSDTK4\/mips-elf-4.4.2/lib/gcc/mips-elf/4.4.2/libgcc.a(_unpack_sf.o)
 .debug_frame   0x00000000000041d4       0x28 C:\CSDTK4\/mips-elf-4.4.2/lib/gcc/mips-elf/4.4.2/libgcc.a(_make_sf.o)
 .debug_frame   0x00000000000041fc       0x30 C:\CSDTK4\/mips-elf-4.4.2/lib/gcc/mips-elf/4.4.2/libgcc.a(_pack_df.o)
 .debug_frame   0x000000000000422c       0x20 C:\CSDTK4\/mips-elf-4.4.2/lib/gcc/mips-elf/4.4.2/libgcc.a(_unpack_df.o)
 .debug_frame   0x000000000000424c       0x20 C:\CSDTK4\/mips-elf-4.4.2/lib/gcc/mips-elf/4.4.2/libgcc.a(_fpcmp_parts_df.o)

.debug_pubnames
                0x0000000000000000     0x32ef
 .debug_pubnames
                0x0000000000000000       0x38 build/gcc/obj/custom/config/custom_sys_cfg.o
 .debug_pubnames
                0x0000000000000038       0x33 build/gcc/obj/custom/config/sys_config.o
 .debug_pubnames
                0x000000000000006b      0x167 build/gcc/obj/ril/src/ril_audio.o
 .debug_pubnames
                0x00000000000001d2       0x3f build/gcc/obj/ril/src/ril_custom.o
 .debug_pubnames
                0x0000000000000211       0xfd build/gcc/obj/ril/src/ril_http.o
 .debug_pubnames
                0x000000000000030e       0x6e build/gcc/obj/ril/src/ril_urc.o
 .debug_pubnames
                0x000000000000037c       0x5f build/gcc/obj/ril/src/ril_atResponse.o
 .debug_pubnames
                0x00000000000003db      0x11d build/gcc/obj/ril/src/ril_network.o
 .debug_pubnames
                0x00000000000004f8       0x76 build/gcc/obj/ril/src/ril_location.o
 .debug_pubnames
                0x000000000000056e       0x3c build/gcc/obj/ril/src/ril_ntp.o
 .debug_pubnames
                0x00000000000005aa       0x6c build/gcc/obj/ril/src/ril_telephony.o
 .debug_pubnames
                0x0000000000000616       0xd5 build/gcc/obj/ril/src/ril_sms.o
 .debug_pubnames
                0x00000000000006eb       0x65 build/gcc/obj/ril/src/ril_system.o
 .debug_pubnames
                0x0000000000000750       0xaa build/gcc/obj/ril/src/Ril_dtmf.o
 .debug_pubnames
                0x00000000000007fa       0x70 build/gcc/obj/ril/src/ril_sim.o
 .debug_pubnames
                0x000000000000086a       0x7f build/gcc/obj/ril/src/ril_location2.o
 .debug_pubnames
                0x00000000000008e9      0x116 build/gcc/obj/ril/src/ril_gnss.o
 .debug_pubnames
                0x00000000000009ff       0x62 build/gcc/obj/ril/src/ril_init.o
 .debug_pubnames
                0x0000000000000a61      0x13a build/gcc/obj/ril/src/ril_ftp.o
 .debug_pubnames
                0x0000000000000b9b       0x50 build/gcc/obj/ril/src/ril_alarm.o
 .debug_pubnames
                0x0000000000000beb       0x86 build/gcc/obj/ril/src/ril_util.o
 .debug_pubnames
                0x0000000000000c71       0xfe build/gcc/obj/ril/src/ril_mqtt.o
 .debug_pubnames
                0x0000000000000d6f      0x541 build/gcc/obj/custom/main.o
 .debug_pubnames
                0x00000000000012b0       0xa0 build/gcc/obj/custom/dfota/src/dfota_main.o
 .debug_pubnames
                0x0000000000001350      0x13b build/gcc/obj/custom/dfota/src/tracker_functions.o
 .debug_pubnames
                0x000000000000148b       0x21 build/gcc/obj/custom/dfota/src/gnss_parser.o
 .debug_pubnames
                0x00000000000014ac       0x54 build/gcc/obj/custom/dfota/src/dfota_ftp.o
 .debug_pubnames
                0x0000000000001500       0xbc build/gcc/obj/custom/dfota/src/dfota_http_code.o
 .debug_pubnames
                0x00000000000015bc      0x234 build/gcc/obj/custom/dfota/src/dfota_http.o
 .debug_pubnames
                0x00000000000017f0       0x53 build/gcc/obj/custom/dfota/src/json_parser.o
 .debug_pubnames
                0x0000000000001843       0xc9 build/gcc/obj/custom/dfota/src/sms_command.o
 .debug_pubnames
                0x000000000000190c       0x1a libs/gcc/fplibm.lib(s_cos.o)
 .debug_pubnames
                0x0000000000001926       0x1a libs/gcc/fplibm.lib(s_sin.o)
 .debug_pubnames
                0x0000000000001940       0x1c libs/gcc/fplibm.lib(w_atan2.o)
 .debug_pubnames
                0x000000000000195c       0x1b libs/gcc/fplibm.lib(w_sqrt.o)
 .debug_pubnames
                0x0000000000001977       0x26 libs/gcc/fplibm.lib(e_atan2.o)
 .debug_pubnames
                0x000000000000199d       0x29 libs/gcc/fplibm.lib(e_rem_pio2.o)
 .debug_pubnames
                0x00000000000019c6       0x25 libs/gcc/fplibm.lib(e_sqrt.o)
 .debug_pubnames
                0x00000000000019eb       0x23 libs/gcc/fplibm.lib(k_cos.o)
 .debug_pubnames
                0x0000000000001a0e       0x28 libs/gcc/fplibm.lib(k_rem_pio2.o)
 .debug_pubnames
                0x0000000000001a36       0x23 libs/gcc/fplibm.lib(k_sin.o)
 .debug_pubnames
                0x0000000000001a59       0x1b libs/gcc/fplibm.lib(s_atan.o)
 .debug_pubnames
                0x0000000000001a74       0x1c libs/gcc/fplibm.lib(s_floor.o)
 .debug_pubnames
                0x0000000000001a90       0x1d libs/gcc/fplibm.lib(s_scalbn.o)
 .debug_pubnames
                0x0000000000001aad       0x71 libs/gcc/app_start.lib(adc.o)
 .debug_pubnames
                0x0000000000001b1e       0x67 libs/gcc/app_start.lib(timer.o)
 .debug_pubnames
                0x0000000000001b85      0x121 libs/gcc/app_start.lib(gprs.o)
 .debug_pubnames
                0x0000000000001ca6      0x24c libs/gcc/app_start.lib(ql_func.o)
 .debug_pubnames
                0x0000000000001ef2      0x198 libs/gcc/app_start.lib(taskMngt.o)
 .debug_pubnames
                0x000000000000208a       0x79 libs/gcc/app_start.lib(fota.o)
 .debug_pubnames
                0x0000000000002103       0xc7 libs/gcc/app_start.lib(ql_main.o)
 .debug_pubnames
                0x00000000000021ca       0x33 libs/gcc/app_start.lib(memory.o)
 .debug_pubnames
                0x00000000000021fd       0xb1 libs/gcc/app_start.lib(ril_main.o)
 .debug_pubnames
                0x00000000000022ae       0x4f libs/gcc/app_start.lib(ril_aux.o)
 .debug_pubnames
                0x00000000000022fd      0x17e libs/gcc/app_start.lib(gpio.o)
 .debug_pubnames
                0x000000000000247b       0x30 libs/gcc/app_start.lib(ocpi_init.o)
 .debug_pubnames
                0x00000000000024ab      0x1f7 libs/gcc/app_start.lib(fileSys.o)
 .debug_pubnames
                0x00000000000026a2       0xd1 libs/gcc/app_start.lib(power.o)
 .debug_pubnames
                0x0000000000002773       0xf3 libs/gcc/app_start.lib(lib_ril_sms.o)
 .debug_pubnames
                0x0000000000002866      0x153 libs/gcc/app_start.lib(stdlib_func.o)
 .debug_pubnames
                0x00000000000029b9       0x89 libs/gcc/app_start.lib(system.o)
 .debug_pubnames
                0x0000000000002a42      0x19e libs/gcc/app_start.lib(uart.o)
 .debug_pubnames
                0x0000000000002be0      0x136 libs/gcc/app_start.lib(watchdog.o)
 .debug_pubnames
                0x0000000000002d16       0x63 libs/gcc/app_start.lib(time.o)
 .debug_pubnames
                0x0000000000002d79      0x1af libs/gcc/app_start.lib(socket.o)
 .debug_pubnames
                0x0000000000002f28       0x23 C:\CSDTK4\/mips-elf-4.4.2/lib/gcc/mips-elf/4.4.2/libgcc.a(_fixunsdfsi.o)
 .debug_pubnames
                0x0000000000002f4b       0x2c C:\CSDTK4\/mips-elf-4.4.2/lib/gcc/mips-elf/4.4.2/libgcc.a(_addsub_sf.o)
 .debug_pubnames
                0x0000000000002f77       0x1f C:\CSDTK4\/mips-elf-4.4.2/lib/gcc/mips-elf/4.4.2/libgcc.a(_mul_sf.o)
 .debug_pubnames
                0x0000000000002f96       0x1f C:\CSDTK4\/mips-elf-4.4.2/lib/gcc/mips-elf/4.4.2/libgcc.a(_div_sf.o)
 .debug_pubnames
                0x0000000000002fb5       0x24 C:\CSDTK4\/mips-elf-4.4.2/lib/gcc/mips-elf/4.4.2/libgcc.a(_sf_to_df.o)
 .debug_pubnames
                0x0000000000002fd9       0x22 C:\CSDTK4\/mips-elf-4.4.2/lib/gcc/mips-elf/4.4.2/libgcc.a(_thenan_sf.o)
 .debug_pubnames
                0x0000000000002ffb       0x24 C:\CSDTK4\/mips-elf-4.4.2/lib/gcc/mips-elf/4.4.2/libgcc.a(_usi_to_sf.o)
 .debug_pubnames
                0x000000000000301f       0x2c C:\CSDTK4\/mips-elf-4.4.2/lib/gcc/mips-elf/4.4.2/libgcc.a(_addsub_df.o)
 .debug_pubnames
                0x000000000000304b       0x1f C:\CSDTK4\/mips-elf-4.4.2/lib/gcc/mips-elf/4.4.2/libgcc.a(_mul_df.o)
 .debug_pubnames
                0x000000000000306a       0x1f C:\CSDTK4\/mips-elf-4.4.2/lib/gcc/mips-elf/4.4.2/libgcc.a(_div_df.o)
 .debug_pubnames
                0x0000000000003089       0x1e C:\CSDTK4\/mips-elf-4.4.2/lib/gcc/mips-elf/4.4.2/libgcc.a(_eq_df.o)
 .debug_pubnames
                0x00000000000030a7       0x1e C:\CSDTK4\/mips-elf-4.4.2/lib/gcc/mips-elf/4.4.2/libgcc.a(_gt_df.o)
 .debug_pubnames
                0x00000000000030c5       0x1e C:\CSDTK4\/mips-elf-4.4.2/lib/gcc/mips-elf/4.4.2/libgcc.a(_ge_df.o)
 .debug_pubnames
                0x00000000000030e3       0x22 C:\CSDTK4\/mips-elf-4.4.2/lib/gcc/mips-elf/4.4.2/libgcc.a(_si_to_df.o)
 .debug_pubnames
                0x0000000000003105       0x20 C:\CSDTK4\/mips-elf-4.4.2/lib/gcc/mips-elf/4.4.2/libgcc.a(_df_to_si.o)
 .debug_pubnames
                0x0000000000003125       0x20 C:\CSDTK4\/mips-elf-4.4.2/lib/gcc/mips-elf/4.4.2/libgcc.a(_make_df.o)
 .debug_pubnames
                0x0000000000003145       0x23 C:\CSDTK4\/mips-elf-4.4.2/lib/gcc/mips-elf/4.4.2/libgcc.a(_df_to_sf.o)
 .debug_pubnames
                0x0000000000003168       0x22 C:\CSDTK4\/mips-elf-4.4.2/lib/gcc/mips-elf/4.4.2/libgcc.a(_thenan_df.o)
 .debug_pubnames
                0x000000000000318a       0x20 C:\CSDTK4\/mips-elf-4.4.2/lib/gcc/mips-elf/4.4.2/libgcc.a(_lshrdi3.o)
 .debug_pubnames
                0x00000000000031aa       0x20 C:\CSDTK4\/mips-elf-4.4.2/lib/gcc/mips-elf/4.4.2/libgcc.a(_ashldi3.o)
 .debug_pubnames
                0x00000000000031ca       0x20 C:\CSDTK4\/mips-elf-4.4.2/lib/gcc/mips-elf/4.4.2/libgcc.a(_ucmpdi2.o)
 .debug_pubnames
                0x00000000000031ea       0x1f C:\CSDTK4\/mips-elf-4.4.2/lib/gcc/mips-elf/4.4.2/libgcc.a(_clzsi2.o)
 .debug_pubnames
                0x0000000000003209       0x1f C:\CSDTK4\/mips-elf-4.4.2/lib/gcc/mips-elf/4.4.2/libgcc.a(_pack_sf.o)
 .debug_pubnames
                0x0000000000003228       0x21 C:\CSDTK4\/mips-elf-4.4.2/lib/gcc/mips-elf/4.4.2/libgcc.a(_unpack_sf.o)
 .debug_pubnames
                0x0000000000003249       0x20 C:\CSDTK4\/mips-elf-4.4.2/lib/gcc/mips-elf/4.4.2/libgcc.a(_make_sf.o)
 .debug_pubnames
                0x0000000000003269       0x1f C:\CSDTK4\/mips-elf-4.4.2/lib/gcc/mips-elf/4.4.2/libgcc.a(_pack_df.o)
 .debug_pubnames
                0x0000000000003288       0x21 C:\CSDTK4\/mips-elf-4.4.2/lib/gcc/mips-elf/4.4.2/libgcc.a(_unpack_df.o)
 .debug_pubnames
                0x00000000000032a9       0x26 C:\CSDTK4\/mips-elf-4.4.2/lib/gcc/mips-elf/4.4.2/libgcc.a(_fpcmp_parts_df.o)
 .debug_pubnames
                0x00000000000032cf       0x20 C:\CSDTK4\/mips-elf-4.4.2/lib/gcc/mips-elf/4.4.2/libgcc.a(_clz.o)

.debug_aranges  0x0000000000000000     0x18c8
 .debug_aranges
                0x0000000000000000       0x20 build/gcc/obj/custom/config/custom_sys_cfg.o
 .debug_aranges
                0x0000000000000020       0x90 build/gcc/obj/ril/src/ril_audio.o
 .debug_aranges
                0x00000000000000b0       0x20 build/gcc/obj/ril/src/ril_custom.o
 .debug_aranges
                0x00000000000000d0       0x48 build/gcc/obj/ril/src/ril_http.o
 .debug_aranges
                0x0000000000000118       0xc8 build/gcc/obj/ril/src/ril_urc.o
 .debug_aranges
                0x00000000000001e0       0x30 build/gcc/obj/ril/src/ril_atResponse.o
 .debug_aranges
                0x0000000000000210       0xa0 build/gcc/obj/ril/src/ril_network.o
 .debug_aranges
                0x00000000000002b0       0x40 build/gcc/obj/ril/src/ril_location.o
 .debug_aranges
                0x00000000000002f0       0x28 build/gcc/obj/ril/src/ril_ntp.o
 .debug_aranges
                0x0000000000000318       0x40 build/gcc/obj/ril/src/ril_telephony.o
 .debug_aranges
                0x0000000000000358       0x90 build/gcc/obj/ril/src/ril_sms.o
 .debug_aranges
                0x00000000000003e8       0x50 build/gcc/obj/ril/src/ril_system.o
 .debug_aranges
                0x0000000000000438       0x58 build/gcc/obj/ril/src/Ril_dtmf.o
 .debug_aranges
                0x0000000000000490       0x50 build/gcc/obj/ril/src/ril_sim.o
 .debug_aranges
                0x00000000000004e0       0x40 build/gcc/obj/ril/src/ril_location2.o
 .debug_aranges
                0x0000000000000520       0x88 build/gcc/obj/ril/src/ril_gnss.o
 .debug_aranges
                0x00000000000005a8       0x28 build/gcc/obj/ril/src/ril_init.o
 .debug_aranges
                0x00000000000005d0       0xa8 build/gcc/obj/ril/src/ril_ftp.o
 .debug_aranges
                0x0000000000000678       0x38 build/gcc/obj/ril/src/ril_alarm.o
 .debug_aranges
                0x00000000000006b0       0x48 build/gcc/obj/ril/src/ril_util.o
 .debug_aranges
                0x00000000000006f8       0x78 build/gcc/obj/ril/src/ril_mqtt.o
 .debug_aranges
                0x0000000000000770       0xb8 build/gcc/obj/custom/main.o
 .debug_aranges
                0x0000000000000828       0x28 build/gcc/obj/custom/dfota/src/dfota_main.o
 .debug_aranges
                0x0000000000000850       0x88 build/gcc/obj/custom/dfota/src/tracker_functions.o
 .debug_aranges
                0x00000000000008d8       0x28 build/gcc/obj/custom/dfota/src/gnss_parser.o
 .debug_aranges
                0x0000000000000900       0x30 build/gcc/obj/custom/dfota/src/dfota_ftp.o
 .debug_aranges
                0x0000000000000930       0x40 build/gcc/obj/custom/dfota/src/dfota_http_code.o
 .debug_aranges
                0x0000000000000970       0xa0 build/gcc/obj/custom/dfota/src/dfota_http.o
 .debug_aranges
                0x0000000000000a10       0x38 build/gcc/obj/custom/dfota/src/json_parser.o
 .debug_aranges
                0x0000000000000a48       0xf8 build/gcc/obj/custom/dfota/src/sms_command.o
 .debug_aranges
                0x0000000000000b40       0x20 libs/gcc/fplibm.lib(s_cos.o)
 .debug_aranges
                0x0000000000000b60       0x20 libs/gcc/fplibm.lib(s_sin.o)
 .debug_aranges
                0x0000000000000b80       0x20 libs/gcc/fplibm.lib(w_atan2.o)
 .debug_aranges
                0x0000000000000ba0       0x20 libs/gcc/fplibm.lib(w_sqrt.o)
 .debug_aranges
                0x0000000000000bc0       0x20 libs/gcc/fplibm.lib(e_atan2.o)
 .debug_aranges
                0x0000000000000be0       0x20 libs/gcc/fplibm.lib(e_rem_pio2.o)
 .debug_aranges
                0x0000000000000c00       0x20 libs/gcc/fplibm.lib(e_sqrt.o)
 .debug_aranges
                0x0000000000000c20       0x20 libs/gcc/fplibm.lib(k_cos.o)
 .debug_aranges
                0x0000000000000c40       0x20 libs/gcc/fplibm.lib(k_rem_pio2.o)
 .debug_aranges
                0x0000000000000c60       0x20 libs/gcc/fplibm.lib(k_sin.o)
 .debug_aranges
                0x0000000000000c80       0x20 libs/gcc/fplibm.lib(s_atan.o)
 .debug_aranges
                0x0000000000000ca0       0x20 libs/gcc/fplibm.lib(s_floor.o)
 .debug_aranges
                0x0000000000000cc0       0x20 libs/gcc/fplibm.lib(s_scalbn.o)
 .debug_aranges
                0x0000000000000ce0       0x30 libs/gcc/app_start.lib(adc.o)
 .debug_aranges
                0x0000000000000d10       0x38 libs/gcc/app_start.lib(timer.o)
 .debug_aranges
                0x0000000000000d48       0x70 libs/gcc/app_start.lib(gprs.o)
 .debug_aranges
                0x0000000000000db8       0x68 libs/gcc/app_start.lib(ql_func.o)
 .debug_aranges
                0x0000000000000e20       0x98 libs/gcc/app_start.lib(taskMngt.o)
 .debug_aranges
                0x0000000000000eb8       0x40 libs/gcc/app_start.lib(fota.o)
 .debug_aranges
                0x0000000000000ef8       0x38 libs/gcc/app_start.lib(ql_main.o)
 .debug_aranges
                0x0000000000000f30       0x28 libs/gcc/app_start.lib(memory.o)
 .debug_aranges
                0x0000000000000f58       0x98 libs/gcc/app_start.lib(ril_main.o)
 .debug_aranges
                0x0000000000000ff0       0x20 libs/gcc/app_start.lib(ril_aux.o)
 .debug_aranges
                0x0000000000001010       0x58 libs/gcc/app_start.lib(gpio.o)
 .debug_aranges
                0x0000000000001068       0x20 libs/gcc/app_start.lib(ocpi_init.o)
 .debug_aranges
                0x0000000000001088       0xe8 libs/gcc/app_start.lib(fileSys.o)
 .debug_aranges
                0x0000000000001170       0x60 libs/gcc/app_start.lib(power.o)
 .debug_aranges
                0x00000000000011d0       0xa0 libs/gcc/app_start.lib(lib_ril_sms.o)
 .debug_aranges
                0x0000000000001270       0xc8 libs/gcc/app_start.lib(stdlib_func.o)
 .debug_aranges
                0x0000000000001338       0x50 libs/gcc/app_start.lib(system.o)
 .debug_aranges
                0x0000000000001388       0xa8 libs/gcc/app_start.lib(uart.o)
 .debug_aranges
                0x0000000000001430       0x70 libs/gcc/app_start.lib(watchdog.o)
 .debug_aranges
                0x00000000000014a0       0x38 libs/gcc/app_start.lib(time.o)
 .debug_aranges
                0x00000000000014d8       0xb0 libs/gcc/app_start.lib(socket.o)
 .debug_aranges
                0x0000000000001588       0x20 C:\CSDTK4\/mips-elf-4.4.2/lib/gcc/mips-elf/4.4.2/libgcc.a(_fixunsdfsi.o)
 .debug_aranges
                0x00000000000015a8       0x20 C:\CSDTK4\/mips-elf-4.4.2/lib/gcc/mips-elf/4.4.2/libgcc.a(_addsub_sf.o)
 .debug_aranges
                0x00000000000015c8       0x20 C:\CSDTK4\/mips-elf-4.4.2/lib/gcc/mips-elf/4.4.2/libgcc.a(_mul_sf.o)
 .debug_aranges
                0x00000000000015e8       0x20 C:\CSDTK4\/mips-elf-4.4.2/lib/gcc/mips-elf/4.4.2/libgcc.a(_div_sf.o)
 .debug_aranges
                0x0000000000001608       0x20 C:\CSDTK4\/mips-elf-4.4.2/lib/gcc/mips-elf/4.4.2/libgcc.a(_sf_to_df.o)
 .debug_aranges
                0x0000000000001628       0x20 C:\CSDTK4\/mips-elf-4.4.2/lib/gcc/mips-elf/4.4.2/libgcc.a(_usi_to_sf.o)
 .debug_aranges
                0x0000000000001648       0x20 C:\CSDTK4\/mips-elf-4.4.2/lib/gcc/mips-elf/4.4.2/libgcc.a(_addsub_df.o)
 .debug_aranges
                0x0000000000001668       0x20 C:\CSDTK4\/mips-elf-4.4.2/lib/gcc/mips-elf/4.4.2/libgcc.a(_mul_df.o)
 .debug_aranges
                0x0000000000001688       0x20 C:\CSDTK4\/mips-elf-4.4.2/lib/gcc/mips-elf/4.4.2/libgcc.a(_div_df.o)
 .debug_aranges
                0x00000000000016a8       0x20 C:\CSDTK4\/mips-elf-4.4.2/lib/gcc/mips-elf/4.4.2/libgcc.a(_eq_df.o)
 .debug_aranges
                0x00000000000016c8       0x20 C:\CSDTK4\/mips-elf-4.4.2/lib/gcc/mips-elf/4.4.2/libgcc.a(_gt_df.o)
 .debug_aranges
                0x00000000000016e8       0x20 C:\CSDTK4\/mips-elf-4.4.2/lib/gcc/mips-elf/4.4.2/libgcc.a(_ge_df.o)
 .debug_aranges
                0x0000000000001708       0x20 C:\CSDTK4\/mips-elf-4.4.2/lib/gcc/mips-elf/4.4.2/libgcc.a(_si_to_df.o)
 .debug_aranges
                0x0000000000001728       0x20 C:\CSDTK4\/mips-elf-4.4.2/lib/gcc/mips-elf/4.4.2/libgcc.a(_df_to_si.o)
 .debug_aranges
                0x0000000000001748       0x20 C:\CSDTK4\/mips-elf-4.4.2/lib/gcc/mips-elf/4.4.2/libgcc.a(_make_df.o)
 .debug_aranges
                0x0000000000001768       0x20 C:\CSDTK4\/mips-elf-4.4.2/lib/gcc/mips-elf/4.4.2/libgcc.a(_df_to_sf.o)
 .debug_aranges
                0x0000000000001788       0x20 C:\CSDTK4\/mips-elf-4.4.2/lib/gcc/mips-elf/4.4.2/libgcc.a(_lshrdi3.o)
 .debug_aranges
                0x00000000000017a8       0x20 C:\CSDTK4\/mips-elf-4.4.2/lib/gcc/mips-elf/4.4.2/libgcc.a(_ashldi3.o)
 .debug_aranges
                0x00000000000017c8       0x20 C:\CSDTK4\/mips-elf-4.4.2/lib/gcc/mips-elf/4.4.2/libgcc.a(_ucmpdi2.o)
 .debug_aranges
                0x00000000000017e8       0x20 C:\CSDTK4\/mips-elf-4.4.2/lib/gcc/mips-elf/4.4.2/libgcc.a(_clzsi2.o)
 .debug_aranges
                0x0000000000001808       0x20 C:\CSDTK4\/mips-elf-4.4.2/lib/gcc/mips-elf/4.4.2/libgcc.a(_pack_sf.o)
 .debug_aranges
                0x0000000000001828       0x20 C:\CSDTK4\/mips-elf-4.4.2/lib/gcc/mips-elf/4.4.2/libgcc.a(_unpack_sf.o)
 .debug_aranges
                0x0000000000001848       0x20 C:\CSDTK4\/mips-elf-4.4.2/lib/gcc/mips-elf/4.4.2/libgcc.a(_make_sf.o)
 .debug_aranges
                0x0000000000001868       0x20 C:\CSDTK4\/mips-elf-4.4.2/lib/gcc/mips-elf/4.4.2/libgcc.a(_pack_df.o)
 .debug_aranges
                0x0000000000001888       0x20 C:\CSDTK4\/mips-elf-4.4.2/lib/gcc/mips-elf/4.4.2/libgcc.a(_unpack_df.o)
 .debug_aranges
                0x00000000000018a8       0x20 C:\CSDTK4\/mips-elf-4.4.2/lib/gcc/mips-elf/4.4.2/libgcc.a(_fpcmp_parts_df.o)

.debug_ranges   0x0000000000000000     0x1c50
 .debug_ranges  0x0000000000000000       0x18 build/gcc/obj/custom/config/custom_sys_cfg.o
 .debug_ranges  0x0000000000000018       0xb8 build/gcc/obj/ril/src/ril_audio.o
 .debug_ranges  0x00000000000000d0       0x18 build/gcc/obj/ril/src/ril_custom.o
 .debug_ranges  0x00000000000000e8       0x40 build/gcc/obj/ril/src/ril_http.o
 .debug_ranges  0x0000000000000128       0xc0 build/gcc/obj/ril/src/ril_urc.o
 .debug_ranges  0x00000000000001e8       0x28 build/gcc/obj/ril/src/ril_atResponse.o
 .debug_ranges  0x0000000000000210       0x98 build/gcc/obj/ril/src/ril_network.o
 .debug_ranges  0x00000000000002a8       0x38 build/gcc/obj/ril/src/ril_location.o
 .debug_ranges  0x00000000000002e0       0x20 build/gcc/obj/ril/src/ril_ntp.o
 .debug_ranges  0x0000000000000300       0x38 build/gcc/obj/ril/src/ril_telephony.o
 .debug_ranges  0x0000000000000338      0x1e8 build/gcc/obj/ril/src/ril_sms.o
 .debug_ranges  0x0000000000000520       0x48 build/gcc/obj/ril/src/ril_system.o
 .debug_ranges  0x0000000000000568       0x50 build/gcc/obj/ril/src/Ril_dtmf.o
 .debug_ranges  0x00000000000005b8       0x48 build/gcc/obj/ril/src/ril_sim.o
 .debug_ranges  0x0000000000000600       0x38 build/gcc/obj/ril/src/ril_location2.o
 .debug_ranges  0x0000000000000638       0x80 build/gcc/obj/ril/src/ril_gnss.o
 .debug_ranges  0x00000000000006b8       0x20 build/gcc/obj/ril/src/ril_init.o
 .debug_ranges  0x00000000000006d8       0xa0 build/gcc/obj/ril/src/ril_ftp.o
 .debug_ranges  0x0000000000000778       0x30 build/gcc/obj/ril/src/ril_alarm.o
 .debug_ranges  0x00000000000007a8       0x40 build/gcc/obj/ril/src/ril_util.o
 .debug_ranges  0x00000000000007e8       0x70 build/gcc/obj/ril/src/ril_mqtt.o
 .debug_ranges  0x0000000000000858      0x1c8 build/gcc/obj/custom/main.o
 .debug_ranges  0x0000000000000a20       0x20 build/gcc/obj/custom/dfota/src/dfota_main.o
 .debug_ranges  0x0000000000000a40       0x80 build/gcc/obj/custom/dfota/src/tracker_functions.o
 .debug_ranges  0x0000000000000ac0       0x20 build/gcc/obj/custom/dfota/src/gnss_parser.o
 .debug_ranges  0x0000000000000ae0       0x28 build/gcc/obj/custom/dfota/src/dfota_ftp.o
 .debug_ranges  0x0000000000000b08       0xb8 build/gcc/obj/custom/dfota/src/dfota_http_code.o
 .debug_ranges  0x0000000000000bc0       0x98 build/gcc/obj/custom/dfota/src/dfota_http.o
 .debug_ranges  0x0000000000000c58       0x30 build/gcc/obj/custom/dfota/src/json_parser.o
 .debug_ranges  0x0000000000000c88      0x2e0 build/gcc/obj/custom/dfota/src/sms_command.o
 .debug_ranges  0x0000000000000f68       0x18 libs/gcc/fplibm.lib(s_cos.o)
 .debug_ranges  0x0000000000000f80       0x18 libs/gcc/fplibm.lib(s_sin.o)
 .debug_ranges  0x0000000000000f98       0x18 libs/gcc/fplibm.lib(w_atan2.o)
 .debug_ranges  0x0000000000000fb0       0x18 libs/gcc/fplibm.lib(w_sqrt.o)
 .debug_ranges  0x0000000000000fc8       0x18 libs/gcc/fplibm.lib(e_atan2.o)
 .debug_ranges  0x0000000000000fe0       0x30 libs/gcc/fplibm.lib(e_rem_pio2.o)
 .debug_ranges  0x0000000000001010       0x30 libs/gcc/fplibm.lib(e_sqrt.o)
 .debug_ranges  0x0000000000001040       0x18 libs/gcc/fplibm.lib(k_cos.o)
 .debug_ranges  0x0000000000001058       0x18 libs/gcc/fplibm.lib(k_rem_pio2.o)
 .debug_ranges  0x0000000000001070       0x18 libs/gcc/fplibm.lib(k_sin.o)
 .debug_ranges  0x0000000000001088       0x18 libs/gcc/fplibm.lib(s_atan.o)
 .debug_ranges  0x00000000000010a0       0x18 libs/gcc/fplibm.lib(s_floor.o)
 .debug_ranges  0x00000000000010b8       0x38 libs/gcc/fplibm.lib(s_scalbn.o)
 .debug_ranges  0x00000000000010f0       0x28 libs/gcc/app_start.lib(adc.o)
 .debug_ranges  0x0000000000001118       0x30 libs/gcc/app_start.lib(timer.o)
 .debug_ranges  0x0000000000001148       0x68 libs/gcc/app_start.lib(gprs.o)
 .debug_ranges  0x00000000000011b0       0x60 libs/gcc/app_start.lib(ql_func.o)
 .debug_ranges  0x0000000000001210       0x90 libs/gcc/app_start.lib(taskMngt.o)
 .debug_ranges  0x00000000000012a0       0x38 libs/gcc/app_start.lib(fota.o)
 .debug_ranges  0x00000000000012d8       0x30 libs/gcc/app_start.lib(ql_main.o)
 .debug_ranges  0x0000000000001308       0x20 libs/gcc/app_start.lib(memory.o)
 .debug_ranges  0x0000000000001328       0xa8 libs/gcc/app_start.lib(ril_main.o)
 .debug_ranges  0x00000000000013d0       0x18 libs/gcc/app_start.lib(ril_aux.o)
 .debug_ranges  0x00000000000013e8       0x50 libs/gcc/app_start.lib(gpio.o)
 .debug_ranges  0x0000000000001438       0x18 libs/gcc/app_start.lib(ocpi_init.o)
 .debug_ranges  0x0000000000001450       0xe0 libs/gcc/app_start.lib(fileSys.o)
 .debug_ranges  0x0000000000001530       0x58 libs/gcc/app_start.lib(power.o)
 .debug_ranges  0x0000000000001588      0x368 libs/gcc/app_start.lib(lib_ril_sms.o)
 .debug_ranges  0x00000000000018f0       0xc0 libs/gcc/app_start.lib(stdlib_func.o)
 .debug_ranges  0x00000000000019b0       0x48 libs/gcc/app_start.lib(system.o)
 .debug_ranges  0x00000000000019f8       0xa0 libs/gcc/app_start.lib(uart.o)
 .debug_ranges  0x0000000000001a98       0x68 libs/gcc/app_start.lib(watchdog.o)
 .debug_ranges  0x0000000000001b00       0x30 libs/gcc/app_start.lib(time.o)
 .debug_ranges  0x0000000000001b30       0xa8 libs/gcc/app_start.lib(socket.o)
 .debug_ranges  0x0000000000001bd8       0x28 C:\CSDTK4\/mips-elf-4.4.2/lib/gcc/mips-elf/4.4.2/libgcc.a(_mul_sf.o)
 .debug_ranges  0x0000000000001c00       0x18 C:\CSDTK4\/mips-elf-4.4.2/lib/gcc/mips-elf/4.4.2/libgcc.a(_usi_to_sf.o)
 .debug_ranges  0x0000000000001c18       0x20 C:\CSDTK4\/mips-elf-4.4.2/lib/gcc/mips-elf/4.4.2/libgcc.a(_mul_df.o)
 .debug_ranges  0x0000000000001c38       0x18 C:\CSDTK4\/mips-elf-4.4.2/lib/gcc/mips-elf/4.4.2/libgcc.a(_si_to_df.o)

.debug_str      0x0000000000000000     0xa6c9
 .debug_str     0x0000000000000000      0x3a8 build/gcc/obj/custom/config/custom_sys_cfg.o
                                        0x3cb (size before relaxing)
 .debug_str     0x00000000000003a8      0x16a build/gcc/obj/custom/config/sys_config.o
                                        0x35b (size before relaxing)
 .debug_str     0x0000000000000512      0xdde build/gcc/obj/ril/src/ril_audio.o
                                        0xe9c (size before relaxing)
 .debug_str     0x00000000000012f0       0x69 build/gcc/obj/ril/src/ril_custom.o
                                         0xf6 (size before relaxing)
 .debug_str     0x0000000000001359      0x1c3 build/gcc/obj/ril/src/ril_http.o
                                        0x34d (size before relaxing)
 .debug_str     0x000000000000151c      0x5ec build/gcc/obj/ril/src/ril_urc.o
                                        0x743 (size before relaxing)
 .debug_str     0x0000000000001b08       0x65 build/gcc/obj/ril/src/ril_atResponse.o
                                        0x148 (size before relaxing)
 .debug_str     0x0000000000001b6d      0x292 build/gcc/obj/ril/src/ril_network.o
                                        0x426 (size before relaxing)
 .debug_str     0x0000000000001dff       0xfc build/gcc/obj/ril/src/ril_location.o
                                        0x27b (size before relaxing)
 .debug_str     0x0000000000001efb       0x7c build/gcc/obj/ril/src/ril_ntp.o
                                        0x18c (size before relaxing)
 .debug_str     0x0000000000001f77       0x8b build/gcc/obj/ril/src/ril_telephony.o
                                        0x24a (size before relaxing)
 .debug_str     0x0000000000002002      0xba8 build/gcc/obj/ril/src/ril_sms.o
                                        0xd1e (size before relaxing)
 .debug_str     0x0000000000002baa      0x100 build/gcc/obj/ril/src/ril_system.o
                                        0x275 (size before relaxing)
 .debug_str     0x0000000000002caa      0x272 build/gcc/obj/ril/src/Ril_dtmf.o
                                        0x3e1 (size before relaxing)
 .debug_str     0x0000000000002f1c      0x196 build/gcc/obj/ril/src/ril_sim.o
                                        0x310 (size before relaxing)
 .debug_str     0x00000000000030b2      0x1c5 build/gcc/obj/ril/src/ril_location2.o
                                        0x3a6 (size before relaxing)
 .debug_str     0x0000000000003277      0x1d2 build/gcc/obj/ril/src/ril_gnss.o
                                        0xd86 (size before relaxing)
 .debug_str     0x0000000000003449       0x53 build/gcc/obj/ril/src/ril_init.o
                                         0xe0 (size before relaxing)
 .debug_str     0x000000000000349c      0x251 build/gcc/obj/ril/src/ril_ftp.o
                                        0xe62 (size before relaxing)
 .debug_str     0x00000000000036ed       0x9f build/gcc/obj/ril/src/ril_alarm.o
                                        0xbca (size before relaxing)
 .debug_str     0x000000000000378c       0xae build/gcc/obj/ril/src/ril_util.o
                                        0x163 (size before relaxing)
 .debug_str     0x000000000000383a      0x2cf build/gcc/obj/ril/src/ril_mqtt.o
                                        0x45b (size before relaxing)
 .debug_str     0x0000000000003b09     0x110a build/gcc/obj/custom/main.o
                                       0x1c79 (size before relaxing)
 .debug_str     0x0000000000004c13      0x273 build/gcc/obj/custom/dfota/src/dfota_main.o
                                        0x391 (size before relaxing)
 .debug_str     0x0000000000004e86      0x222 build/gcc/obj/custom/dfota/src/tracker_functions.o
                                       0x1432 (size before relaxing)
 .debug_str     0x00000000000050a8       0x5a build/gcc/obj/custom/dfota/src/gnss_parser.o
                                        0x134 (size before relaxing)
 .debug_str     0x0000000000005102      0x198 build/gcc/obj/custom/dfota/src/dfota_ftp.o
                                        0xe80 (size before relaxing)
 .debug_str     0x000000000000529a      0x743 build/gcc/obj/custom/dfota/src/dfota_http_code.o
                                        0x8b5 (size before relaxing)
 .debug_str     0x00000000000059dd      0x505 build/gcc/obj/custom/dfota/src/dfota_http.o
                                        0xbbf (size before relaxing)
 .debug_str     0x0000000000005ee2       0x61 build/gcc/obj/custom/dfota/src/json_parser.o
                                         0xfd (size before relaxing)
 .debug_str     0x0000000000005f43      0x708 build/gcc/obj/custom/dfota/src/sms_command.o
                                       0x1039 (size before relaxing)
 .debug_str     0x000000000000664b       0x64 libs/gcc/fplibm.lib(s_cos.o)
                                         0x99 (size before relaxing)
 .debug_str     0x00000000000066af       0x13 libs/gcc/fplibm.lib(s_sin.o)
                                         0x99 (size before relaxing)
 .debug_str     0x00000000000066c2       0x15 libs/gcc/fplibm.lib(w_atan2.o)
                                         0x99 (size before relaxing)
 .debug_str     0x00000000000066d7       0x14 libs/gcc/fplibm.lib(w_sqrt.o)
                                         0x97 (size before relaxing)
 .debug_str     0x00000000000066eb       0x68 libs/gcc/fplibm.lib(e_atan2.o)
                                         0xff (size before relaxing)
 .debug_str     0x0000000000006753       0x80 libs/gcc/fplibm.lib(e_rem_pio2.o)
                                        0x141 (size before relaxing)
 .debug_str     0x00000000000067d3       0x2d libs/gcc/fplibm.lib(e_sqrt.o)
                                         0xe9 (size before relaxing)
 .debug_str     0x0000000000006800       0x20 libs/gcc/fplibm.lib(k_cos.o)
                                         0xd7 (size before relaxing)
 .debug_str     0x0000000000006820       0x59 libs/gcc/fplibm.lib(k_rem_pio2.o)
                                         0xe2 (size before relaxing)
 .debug_str     0x0000000000006879       0x20 libs/gcc/fplibm.lib(k_sin.o)
                                         0xab (size before relaxing)
 .debug_str     0x0000000000006899       0x31 libs/gcc/fplibm.lib(s_atan.o)
                                         0xe3 (size before relaxing)
 .debug_str     0x00000000000068ca       0x1b libs/gcc/fplibm.lib(s_floor.o)
                                         0xdc (size before relaxing)
 .debug_str     0x00000000000068e5       0x2a libs/gcc/fplibm.lib(s_scalbn.o)
                                         0xf0 (size before relaxing)
 .debug_str     0x000000000000690f      0x108 libs/gcc/app_start.lib(adc.o)
                                        0xc50 (size before relaxing)
 .debug_str     0x0000000000006a17      0x12b libs/gcc/app_start.lib(timer.o)
                                        0xc3c (size before relaxing)
 .debug_str     0x0000000000006b42      0x2e0 libs/gcc/app_start.lib(gprs.o)
                                        0xe8b (size before relaxing)
 .debug_str     0x0000000000006e22      0x3b3 libs/gcc/app_start.lib(ql_func.o)
                                        0xf22 (size before relaxing)
 .debug_str     0x00000000000071d5      0x462 libs/gcc/app_start.lib(taskMngt.o)
                                        0xf9a (size before relaxing)
 .debug_str     0x0000000000007637      0x12b libs/gcc/app_start.lib(fota.o)
                                        0xc9b (size before relaxing)
 .debug_str     0x0000000000007762      0x245 libs/gcc/app_start.lib(ql_main.o)
                                        0x71b (size before relaxing)
 .debug_str     0x00000000000079a7       0x66 libs/gcc/app_start.lib(memory.o)
                                        0x160 (size before relaxing)
 .debug_str     0x0000000000007a0d      0x3c3 libs/gcc/app_start.lib(ril_main.o)
                                       0x1157 (size before relaxing)
 .debug_str     0x0000000000007dd0       0x24 libs/gcc/app_start.lib(ril_aux.o)
                                        0x161 (size before relaxing)
 .debug_str     0x0000000000007df4      0x209 libs/gcc/app_start.lib(gpio.o)
                                        0xf0c (size before relaxing)
 .debug_str     0x0000000000007ffd       0x7d libs/gcc/app_start.lib(ocpi_init.o)
                                        0x12f (size before relaxing)
 .debug_str     0x000000000000807a      0x5a7 libs/gcc/app_start.lib(fileSys.o)
                                       0x10e4 (size before relaxing)
 .debug_str     0x0000000000008621      0x219 libs/gcc/app_start.lib(power.o)
                                        0xd2d (size before relaxing)
 .debug_str     0x000000000000883a      0xa13 libs/gcc/app_start.lib(lib_ril_sms.o)
                                        0xfdd (size before relaxing)
 .debug_str     0x000000000000924d      0x2cc libs/gcc/app_start.lib(stdlib_func.o)
                                        0xe38 (size before relaxing)
 .debug_str     0x0000000000009519      0x122 libs/gcc/app_start.lib(system.o)
                                        0xc3a (size before relaxing)
 .debug_str     0x000000000000963b      0x4a1 libs/gcc/app_start.lib(uart.o)
                                       0x1361 (size before relaxing)
 .debug_str     0x0000000000009adc      0x20d libs/gcc/app_start.lib(watchdog.o)
                                        0xf2b (size before relaxing)
 .debug_str     0x0000000000009ce9       0xef libs/gcc/app_start.lib(time.o)
                                        0xc2d (size before relaxing)
 .debug_str     0x0000000000009dd8      0x4dc libs/gcc/app_start.lib(socket.o)
                                       0x110a (size before relaxing)
 .debug_str     0x000000000000a2b4       0xab C:\CSDTK4\/mips-elf-4.4.2/lib/gcc/mips-elf/4.4.2/libgcc.a(_fixunsdfsi.o)
                                        0x14d (size before relaxing)
 .debug_str     0x000000000000a35f      0x152 C:\CSDTK4\/mips-elf-4.4.2/lib/gcc/mips-elf/4.4.2/libgcc.a(_addsub_sf.o)
                                        0x233 (size before relaxing)
 .debug_str     0x000000000000a4b1       0x25 C:\CSDTK4\/mips-elf-4.4.2/lib/gcc/mips-elf/4.4.2/libgcc.a(_mul_sf.o)
                                        0x1ea (size before relaxing)
 .debug_str     0x000000000000a4d6       0x35 C:\CSDTK4\/mips-elf-4.4.2/lib/gcc/mips-elf/4.4.2/libgcc.a(_div_sf.o)
                                        0x1f5 (size before relaxing)
 .debug_str     0x000000000000a50b        0xe C:\CSDTK4\/mips-elf-4.4.2/lib/gcc/mips-elf/4.4.2/libgcc.a(_sf_to_df.o)
                                        0x1b4 (size before relaxing)
 .debug_str     0x0000000000000000      0x165 C:\CSDTK4\/mips-elf-4.4.2/lib/gcc/mips-elf/4.4.2/libgcc.a(_thenan_sf.o)
 .debug_str     0x000000000000a519       0x21 C:\CSDTK4\/mips-elf-4.4.2/lib/gcc/mips-elf/4.4.2/libgcc.a(_usi_to_sf.o)
                                        0x19c (size before relaxing)
 .debug_str     0x000000000000a53a       0x39 C:\CSDTK4\/mips-elf-4.4.2/lib/gcc/mips-elf/4.4.2/libgcc.a(_addsub_df.o)
                                        0x239 (size before relaxing)
 .debug_str     0x000000000000a573       0x33 C:\CSDTK4\/mips-elf-4.4.2/lib/gcc/mips-elf/4.4.2/libgcc.a(_mul_df.o)
                                        0x20b (size before relaxing)
 .debug_str     0x000000000000a5a6        0x9 C:\CSDTK4\/mips-elf-4.4.2/lib/gcc/mips-elf/4.4.2/libgcc.a(_div_df.o)
                                        0x1fb (size before relaxing)
 .debug_str     0x000000000000a5af       0x10 C:\CSDTK4\/mips-elf-4.4.2/lib/gcc/mips-elf/4.4.2/libgcc.a(_eq_df.o)
                                        0x1c1 (size before relaxing)
 .debug_str     0x000000000000a5bf        0x8 C:\CSDTK4\/mips-elf-4.4.2/lib/gcc/mips-elf/4.4.2/libgcc.a(_gt_df.o)
                                        0x1c1 (size before relaxing)
 .debug_str     0x000000000000a5c7        0x8 C:\CSDTK4\/mips-elf-4.4.2/lib/gcc/mips-elf/4.4.2/libgcc.a(_ge_df.o)
                                        0x1c1 (size before relaxing)
 .debug_str     0x000000000000a5cf       0x11 C:\CSDTK4\/mips-elf-4.4.2/lib/gcc/mips-elf/4.4.2/libgcc.a(_si_to_df.o)
                                        0x1a0 (size before relaxing)
 .debug_str     0x000000000000a5e0        0xa C:\CSDTK4\/mips-elf-4.4.2/lib/gcc/mips-elf/4.4.2/libgcc.a(_df_to_si.o)
                                        0x1c9 (size before relaxing)
 .debug_str     0x000000000000a5ea        0xa C:\CSDTK4\/mips-elf-4.4.2/lib/gcc/mips-elf/4.4.2/libgcc.a(_make_df.o)
                                        0x17b (size before relaxing)
 .debug_str     0x000000000000a5f4       0x14 C:\CSDTK4\/mips-elf-4.4.2/lib/gcc/mips-elf/4.4.2/libgcc.a(_df_to_sf.o)
                                        0x1c0 (size before relaxing)
 .debug_str     0x0000000000000000      0x165 C:\CSDTK4\/mips-elf-4.4.2/lib/gcc/mips-elf/4.4.2/libgcc.a(_thenan_df.o)
 .debug_str     0x000000000000a608       0x34 C:\CSDTK4\/mips-elf-4.4.2/lib/gcc/mips-elf/4.4.2/libgcc.a(_lshrdi3.o)
                                        0x180 (size before relaxing)
 .debug_str     0x000000000000a63c        0xa C:\CSDTK4\/mips-elf-4.4.2/lib/gcc/mips-elf/4.4.2/libgcc.a(_ashldi3.o)
                                        0x180 (size before relaxing)
 .debug_str     0x000000000000a646       0x1a C:\CSDTK4\/mips-elf-4.4.2/lib/gcc/mips-elf/4.4.2/libgcc.a(_ucmpdi2.o)
                                        0x16f (size before relaxing)
 .debug_str     0x000000000000a660       0x20 C:\CSDTK4\/mips-elf-4.4.2/lib/gcc/mips-elf/4.4.2/libgcc.a(_clzsi2.o)
                                        0x160 (size before relaxing)
 .debug_str     0x000000000000a680       0x10 C:\CSDTK4\/mips-elf-4.4.2/lib/gcc/mips-elf/4.4.2/libgcc.a(_pack_sf.o)
                                        0x1c2 (size before relaxing)
 .debug_str     0x000000000000a690        0xb C:\CSDTK4\/mips-elf-4.4.2/lib/gcc/mips-elf/4.4.2/libgcc.a(_unpack_sf.o)
                                        0x1a4 (size before relaxing)
 .debug_str     0x000000000000a69b        0xa C:\CSDTK4\/mips-elf-4.4.2/lib/gcc/mips-elf/4.4.2/libgcc.a(_make_sf.o)
                                        0x17b (size before relaxing)
 .debug_str     0x000000000000a6a5        0x9 C:\CSDTK4\/mips-elf-4.4.2/lib/gcc/mips-elf/4.4.2/libgcc.a(_pack_df.o)
                                        0x1c8 (size before relaxing)
 .debug_str     0x000000000000a6ae        0xb C:\CSDTK4\/mips-elf-4.4.2/lib/gcc/mips-elf/4.4.2/libgcc.a(_unpack_df.o)
                                        0x1aa (size before relaxing)
 .debug_str     0x000000000000a6b9       0x10 C:\CSDTK4\/mips-elf-4.4.2/lib/gcc/mips-elf/4.4.2/libgcc.a(_fpcmp_parts_df.o)
                                        0x188 (size before relaxing)
 .debug_str     0x0000000000000000      0x143 C:\CSDTK4\/mips-elf-4.4.2/lib/gcc/mips-elf/4.4.2/libgcc.a(_clz.o)

.debug_loc      0x0000000000000000    0x15ea9
 .debug_loc     0x0000000000000000      0x63b build/gcc/obj/ril/src/ril_audio.o
 .debug_loc     0x000000000000063b       0x79 build/gcc/obj/ril/src/ril_custom.o
 .debug_loc     0x00000000000006b4      0x420 build/gcc/obj/ril/src/ril_http.o
 .debug_loc     0x0000000000000ad4      0xb78 build/gcc/obj/ril/src/ril_urc.o
 .debug_loc     0x000000000000164c       0x79 build/gcc/obj/ril/src/ril_atResponse.o
 .debug_loc     0x00000000000016c5      0x8e1 build/gcc/obj/ril/src/ril_network.o
 .debug_loc     0x0000000000001fa6      0x2b2 build/gcc/obj/ril/src/ril_location.o
 .debug_loc     0x0000000000002258      0x114 build/gcc/obj/ril/src/ril_ntp.o
 .debug_loc     0x000000000000236c      0x250 build/gcc/obj/ril/src/ril_telephony.o
 .debug_loc     0x00000000000025bc     0x12e4 build/gcc/obj/ril/src/ril_sms.o
 .debug_loc     0x00000000000038a0      0x62b build/gcc/obj/ril/src/ril_system.o
 .debug_loc     0x0000000000003ecb      0x4e9 build/gcc/obj/ril/src/Ril_dtmf.o
 .debug_loc     0x00000000000043b4      0x4aa build/gcc/obj/ril/src/ril_sim.o
 .debug_loc     0x000000000000485e      0x36e build/gcc/obj/ril/src/ril_location2.o
 .debug_loc     0x0000000000004bcc      0x749 build/gcc/obj/ril/src/ril_gnss.o
 .debug_loc     0x0000000000005315      0x9f9 build/gcc/obj/ril/src/ril_ftp.o
 .debug_loc     0x0000000000005d0e      0x33e build/gcc/obj/ril/src/ril_alarm.o
 .debug_loc     0x000000000000604c      0x3c3 build/gcc/obj/ril/src/ril_util.o
 .debug_loc     0x000000000000640f      0x78b build/gcc/obj/ril/src/ril_mqtt.o
 .debug_loc     0x0000000000006b9a      0xf66 build/gcc/obj/custom/main.o
 .debug_loc     0x0000000000007b00      0x142 build/gcc/obj/custom/dfota/src/dfota_main.o
 .debug_loc     0x0000000000007c42      0x2cb build/gcc/obj/custom/dfota/src/tracker_functions.o
 .debug_loc     0x0000000000007f0d       0xc9 build/gcc/obj/custom/dfota/src/gnss_parser.o
 .debug_loc     0x0000000000007fd6      0x479 build/gcc/obj/custom/dfota/src/dfota_ftp.o
 .debug_loc     0x000000000000844f      0x497 build/gcc/obj/custom/dfota/src/dfota_http_code.o
 .debug_loc     0x00000000000088e6      0x6b3 build/gcc/obj/custom/dfota/src/dfota_http.o
 .debug_loc     0x0000000000008f99      0x293 build/gcc/obj/custom/dfota/src/json_parser.o
 .debug_loc     0x000000000000922c     0x190e build/gcc/obj/custom/dfota/src/sms_command.o
 .debug_loc     0x000000000000ab3a       0xa0 libs/gcc/fplibm.lib(s_cos.o)
 .debug_loc     0x000000000000abda       0xa0 libs/gcc/fplibm.lib(s_sin.o)
 .debug_loc     0x000000000000ac7a       0x4f libs/gcc/fplibm.lib(w_atan2.o)
 .debug_loc     0x000000000000acc9       0x37 libs/gcc/fplibm.lib(w_sqrt.o)
 .debug_loc     0x000000000000ad00      0x297 libs/gcc/fplibm.lib(e_atan2.o)
 .debug_loc     0x000000000000af97      0x3f3 libs/gcc/fplibm.lib(e_rem_pio2.o)
 .debug_loc     0x000000000000b38a      0x1f9 libs/gcc/fplibm.lib(e_sqrt.o)
 .debug_loc     0x000000000000b583      0x190 libs/gcc/fplibm.lib(k_cos.o)
 .debug_loc     0x000000000000b713      0x70b libs/gcc/fplibm.lib(k_rem_pio2.o)
 .debug_loc     0x000000000000be1e      0x199 libs/gcc/fplibm.lib(k_sin.o)
 .debug_loc     0x000000000000bfb7      0x30a libs/gcc/fplibm.lib(s_atan.o)
 .debug_loc     0x000000000000c2c1      0x1ad libs/gcc/fplibm.lib(s_floor.o)
 .debug_loc     0x000000000000c46e      0x1a4 libs/gcc/fplibm.lib(s_scalbn.o)
 .debug_loc     0x000000000000c612      0x14d libs/gcc/app_start.lib(adc.o)
 .debug_loc     0x000000000000c75f      0x220 libs/gcc/app_start.lib(timer.o)
 .debug_loc     0x000000000000c97f      0x4d9 libs/gcc/app_start.lib(gprs.o)
 .debug_loc     0x000000000000ce58      0x485 libs/gcc/app_start.lib(ql_func.o)
 .debug_loc     0x000000000000d2dd      0x60a libs/gcc/app_start.lib(taskMngt.o)
 .debug_loc     0x000000000000d8e7      0x1e5 libs/gcc/app_start.lib(fota.o)
 .debug_loc     0x000000000000dacc      0x3ee libs/gcc/app_start.lib(ql_main.o)
 .debug_loc     0x000000000000deba       0xb6 libs/gcc/app_start.lib(memory.o)
 .debug_loc     0x000000000000df70      0x6ac libs/gcc/app_start.lib(ril_main.o)
 .debug_loc     0x000000000000e61c       0x32 libs/gcc/app_start.lib(ril_aux.o)
 .debug_loc     0x000000000000e64e      0x38c libs/gcc/app_start.lib(gpio.o)
 .debug_loc     0x000000000000e9da      0xc68 libs/gcc/app_start.lib(fileSys.o)
 .debug_loc     0x000000000000f642      0x2d8 libs/gcc/app_start.lib(power.o)
 .debug_loc     0x000000000000f91a     0x2b4c libs/gcc/app_start.lib(lib_ril_sms.o)
 .debug_loc     0x0000000000012466      0xa9a libs/gcc/app_start.lib(stdlib_func.o)
 .debug_loc     0x0000000000012f00      0x32a libs/gcc/app_start.lib(system.o)
 .debug_loc     0x000000000001322a      0x808 libs/gcc/app_start.lib(uart.o)
 .debug_loc     0x0000000000013a32      0x3db libs/gcc/app_start.lib(watchdog.o)
 .debug_loc     0x0000000000013e0d      0x1a4 libs/gcc/app_start.lib(time.o)
 .debug_loc     0x0000000000013fb1      0xab6 libs/gcc/app_start.lib(socket.o)
 .debug_loc     0x0000000000014a67       0x57 C:\CSDTK4\/mips-elf-4.4.2/lib/gcc/mips-elf/4.4.2/libgcc.a(_fixunsdfsi.o)
 .debug_loc     0x0000000000014abe      0x2ab C:\CSDTK4\/mips-elf-4.4.2/lib/gcc/mips-elf/4.4.2/libgcc.a(_addsub_sf.o)
 .debug_loc     0x0000000000014d69       0xcf C:\CSDTK4\/mips-elf-4.4.2/lib/gcc/mips-elf/4.4.2/libgcc.a(_mul_sf.o)
 .debug_loc     0x0000000000014e38       0xd1 C:\CSDTK4\/mips-elf-4.4.2/lib/gcc/mips-elf/4.4.2/libgcc.a(_div_sf.o)
 .debug_loc     0x0000000000014f09       0x32 C:\CSDTK4\/mips-elf-4.4.2/lib/gcc/mips-elf/4.4.2/libgcc.a(_sf_to_df.o)
 .debug_loc     0x0000000000014f3b       0x66 C:\CSDTK4\/mips-elf-4.4.2/lib/gcc/mips-elf/4.4.2/libgcc.a(_usi_to_sf.o)
 .debug_loc     0x0000000000014fa1      0x261 C:\CSDTK4\/mips-elf-4.4.2/lib/gcc/mips-elf/4.4.2/libgcc.a(_addsub_df.o)
 .debug_loc     0x0000000000015202      0x167 C:\CSDTK4\/mips-elf-4.4.2/lib/gcc/mips-elf/4.4.2/libgcc.a(_mul_df.o)
 .debug_loc     0x0000000000015369      0x164 C:\CSDTK4\/mips-elf-4.4.2/lib/gcc/mips-elf/4.4.2/libgcc.a(_div_df.o)
 .debug_loc     0x00000000000154cd       0x50 C:\CSDTK4\/mips-elf-4.4.2/lib/gcc/mips-elf/4.4.2/libgcc.a(_eq_df.o)
 .debug_loc     0x000000000001551d       0x50 C:\CSDTK4\/mips-elf-4.4.2/lib/gcc/mips-elf/4.4.2/libgcc.a(_gt_df.o)
 .debug_loc     0x000000000001556d       0x50 C:\CSDTK4\/mips-elf-4.4.2/lib/gcc/mips-elf/4.4.2/libgcc.a(_ge_df.o)
 .debug_loc     0x00000000000155bd       0x90 C:\CSDTK4\/mips-elf-4.4.2/lib/gcc/mips-elf/4.4.2/libgcc.a(_si_to_df.o)
 .debug_loc     0x000000000001564d       0x6b C:\CSDTK4\/mips-elf-4.4.2/lib/gcc/mips-elf/4.4.2/libgcc.a(_df_to_si.o)
 .debug_loc     0x00000000000156b8       0x7d C:\CSDTK4\/mips-elf-4.4.2/lib/gcc/mips-elf/4.4.2/libgcc.a(_make_df.o)
 .debug_loc     0x0000000000015735       0x60 C:\CSDTK4\/mips-elf-4.4.2/lib/gcc/mips-elf/4.4.2/libgcc.a(_df_to_sf.o)
 .debug_loc     0x0000000000015795       0xbd C:\CSDTK4\/mips-elf-4.4.2/lib/gcc/mips-elf/4.4.2/libgcc.a(_lshrdi3.o)
 .debug_loc     0x0000000000015852       0xe5 C:\CSDTK4\/mips-elf-4.4.2/lib/gcc/mips-elf/4.4.2/libgcc.a(_ashldi3.o)
 .debug_loc     0x0000000000015937       0x6f C:\CSDTK4\/mips-elf-4.4.2/lib/gcc/mips-elf/4.4.2/libgcc.a(_ucmpdi2.o)
 .debug_loc     0x00000000000159a6       0x31 C:\CSDTK4\/mips-elf-4.4.2/lib/gcc/mips-elf/4.4.2/libgcc.a(_clzsi2.o)
 .debug_loc     0x00000000000159d7       0xd0 C:\CSDTK4\/mips-elf-4.4.2/lib/gcc/mips-elf/4.4.2/libgcc.a(_pack_sf.o)
 .debug_loc     0x0000000000015aa7       0x7b C:\CSDTK4\/mips-elf-4.4.2/lib/gcc/mips-elf/4.4.2/libgcc.a(_unpack_sf.o)
 .debug_loc     0x0000000000015b22       0x6b C:\CSDTK4\/mips-elf-4.4.2/lib/gcc/mips-elf/4.4.2/libgcc.a(_make_sf.o)
 .debug_loc     0x0000000000015b8d      0x204 C:\CSDTK4\/mips-elf-4.4.2/lib/gcc/mips-elf/4.4.2/libgcc.a(_pack_df.o)
 .debug_loc     0x0000000000015d91       0xef C:\CSDTK4\/mips-elf-4.4.2/lib/gcc/mips-elf/4.4.2/libgcc.a(_unpack_df.o)
 .debug_loc     0x0000000000015e80       0x29 C:\CSDTK4\/mips-elf-4.4.2/lib/gcc/mips-elf/4.4.2/libgcc.a(_fpcmp_parts_df.o)
